(dp1
S'output'
p2
S"<type 'exceptions.AttributeError'> 'str' object has no attribute 'strftime'"
p3
sS'layer'
p4
S'/home/prabhsimran/web2py/applications/UIpart/views/default/viewbookings.html'
p5
sS'code'
p6
S'response.write(\'<!DOCTYPE html>\\n<html lang="en">\\n<head>\\n    <title>Home</title>\\n    <meta charset="utf-8">\\n\\t<meta name="viewport" content="width=device-width, initial-scale=1.0">\\n    <meta name="description" content="Your description">\\n    <meta name="keywords" content="Your keywords">\\n    <meta name="author" content="Your name">\\n    <link rel="icon" href="\', escape=False)\nresponse.write(URL(\'static\',\'css_template/img/favicon.ico\'))\nresponse.write(\'" type="image/x-icon">\\n    <link rel="shortcut icon" href="\', escape=False)\nresponse.write(URL(\'static\',\'css_template/img/favicon.ico\'))\nresponse.write(\'" type="image/x-icon" />\\n    <link href=\\\'http://fonts.googleapis.com/css?family=Open+Sans:400,600,700\\\' rel=\\\'stylesheet\\\' type=\\\'text/css\\\'>\\n\\t<script type="text/javascript" src="\', escape=False)\nresponse.write(URL(\'static\',\'js/jquery.js\'))\nresponse.write(\'"></script>\\n    <script type="text/javascript" src="\', escape=False)\nresponse.write(URL(\'static\',\'js/jquery.easing.1.3.js\'))\nresponse.write(\'"></script>\\n\\t<script type="text/javascript" src="\', escape=False)\nresponse.write(URL(\'static\',\'js/camera.js\'))\nresponse.write(\'"></script>\\n    <script src="\', escape=False)\nresponse.write(URL(\'static\',\'css_template/js/jquery.ui.totop.js\'))\nresponse.write(\'" type="text/javascript"></script>\\n\\t<script>\\n      $(document).ready(function(){   \\n              jQuery(\\\'.camera_wrap\\\').camera();\\n        });    \\n\\t</script>\\t\\t\\n\\t<!--[if lt IE 8]>\\n  \\t\\t<div style=\\\'text-align:center\\\'><a href="http://www.microsoft.com/windows/internet-explorer/default.aspx?ocid=ie6_countdown_bannercode"><img src="http://www.theie6countdown.com/img/upgrade.jpg"border="0"alt=""/></a></div>  \\n \\t<![endif]-->\\n  \\n  <!--[if (gt IE 9)|!(IE)]><!-->\\n  <script type="text/javascript" src="\', escape=False)\nresponse.write(URL(\'static\',\'js/jquery.mobile.customized.min.js\'))\nresponse.write(\'"></script>\\n  <!--<![endif]-->\\n  \\t<!--[if lt IE 9]>\\n    <link href=\\\'http://fonts.googleapis.com/css?family=Open+Sans:400\\\' rel=\\\'stylesheet\\\' type=\\\'text/css\\\'>\\n    <link href=\\\'http://fonts.googleapis.com/css?family=Open+Sans:600\\\' rel=\\\'stylesheet\\\' type=\\\'text/css\\\'>\\n    <link href=\\\'http://fonts.googleapis.com/css?family=Open+Sans:700\\\' rel=\\\'stylesheet\\\' type=\\\'text/css\\\'>\\n    <script src="http://html5shim.googlecode.com/svn/trunk/html5.js"></script>\\n    <link rel="stylesheet" href="css/docs.css" type="text/css" media="screen">\\n    <link rel="stylesheet" href="css/ie.css" type="text/css" media="screen">\\n  <![endif]-->\\n\', escape=False)\nresponse.files.append(URL(\'static\',\'css_template/css/bootstrap.css\'))\nresponse.files.append(URL(\'static\',\'css_template/css/responsive.css\'))\nresponse.files.append(URL(\'static\',\'css_template/css/camera.css\'))\nresponse.files.append(URL(\'static\',\'css_template/css/style.css\'))\nresponse.files.append(URL(\'static\',\'css_template/js/jquery.js\'))\nresponse.files.append(URL(\'static\',\'css_template/js/jquery.easing.1.3.js\'))\nresponse.files.append(URL(\'static\',\'css_template/js/camera.js\'))\nresponse.files.append(URL(\'static\',\'css_template/js/jquery.ui.totop.js\'))\nresponse.write(\'\\n\\n\', escape=False)\nresponse.write(\'<script type="text/javascript"><!--\\n    // These variables are used by the web2py_ajax_init function in web2py_ajax.js (which is loaded below).\\n    var w2p_ajax_confirm_message = "\', escape=False)\nresponse.write(T(\'Are you sure you want to delete this object?\'))\nresponse.write(\'";\\n    var w2p_ajax_date_format = "\', escape=False)\nresponse.write(T(\'%Y-%m-%d\'))\nresponse.write(\'";\\n    var w2p_ajax_datetime_format = "\', escape=False)\nresponse.write(T(\'%Y-%m-%d %H:%M:%S\'))\nresponse.write(\'";\\n    var ajax_error_500 = \\\'\', escape=False)\nresponse.write(XML(T(\'An error occured, please %s the page\') % A(T(\'reload\'), _href=URL(args=request.args, vars=request.get_vars))))\nresponse.write("\'\\n    //--></script>\\n", escape=False)\nresponse.files.insert(0,URL(\'static\',\'js/jquery.js\'))\nresponse.files.insert(1,URL(\'static\',\'css/calendar.css\'))\nresponse.files.insert(2,URL(\'static\',\'js/calendar.js\'))\nresponse.files.insert(3,URL(\'static\',\'js/web2py.js\'))\nresponse.include_meta()\nresponse.include_files()\nresponse.write(\'\\n\', escape=False)\nresponse.write(\'\\n    \\n</head>\\n\\n<body>\\n\\n                                <div class="flash">\', escape=False)\nresponse.write(response.flash or \'\')\nresponse.write(\'</div>\\n<!--==============================header=================================-->\\n<header class="p0">\\n    <div class="container">\\n    \\t<div class="row">\\n        \\t<div class="span12">\\n            \\t\\n            \\t<div class="header-block clearfix">\\n                    <div class="clearfix header-block-pad">\\n                        <h1 class="brand"><a href="\', escape=False)\nresponse.write(URL(\'static\',\'css_template/index.html\'))\nresponse.write(\'"><!--<img src="img/logo.png" alt="">--><h3 style="color:lightblue">Traveller\\\'s Paradise</h3></a><span>Cuz the world is just so ... AWESOME!!</span></h1><span style="float:right;"><table class="headprofile" cellspacing="10px">\\n                        <tr>\\n                            <td><a href="\', escape=False)\nresponse.write(URL(\'profile\'))\nresponse.write(\'">User Profile</a></td>\\n                            <td><a href="\', escape=False)\nresponse.write(URL(\'viewbookings\'))\nresponse.write(\'">View Bookings</a></td>\\n                                                        \', escape=False)\nif auth.user_id>0:\n    response.write(\'\\n                            <td><a href="\', escape=False)\n    response.write(URL(\'default\',\'user\',args=\'logout\'))\n    response.write(\'">Logout</a></td>\\n                            \', escape=False)\nelse:\n    response.write(\'\\n                            <td><a href="\', escape=False)\n    response.write(URL(\'profile\'))\n    response.write(\'">Login</a></td>\\n                            \', escape=False)\n    pass\nresponse.write(\'\\n                            \\n                        </tr>\\n                        </table>\\n                        <!--<span class="contacts">Call Us Toll Free:  <span>+1 234 567 89 90</span><br>E-mail: <a href="#">company@demolink.org</a></span>-->\\n                    </div>\\n                    <div class="navbar navbar_ clearfix">\\n                        <div class="navbar-inner navbar-inner_">\\n                            <div class="container">\\n                                <a class="btn btn-navbar" data-toggle="collapse" data-target=".nav-collapse_">MENU</a>                                                   \\n                                <!--Menu-BAR -->\\n                                <div class="nav-collapse nav-collapse_ collapse">\\n                                \\n                                    <ul class="nav sf-menu">\\n                                      \', escape=False)\nif session.var==1:\n    response.write(\'\\n                                        <li class="active li-first"><a href="\', escape=False)\n    response.write(URL(\'index\'))\n    response.write(\'">Flights</a></li>\\n                                        <li ><a href="\', escape=False)\n    response.write(URL(\'railway\'))\n    response.write(\'">Trains</a></li>\\n                                          <li ><a href="\', escape=False)\n    response.write(URL(\'bus_booking\'))\n    response.write(\'">Buses</a></li>\\n                                          <li ><a href="\', escape=False)\n    response.write(URL(\'hotel_search\'))\n    response.write(\'">Hotels</a></li>\\n                                        <li><a href="#">Package Deals</a></li>\\n                                           \', escape=False)\nelif session.var==2:\n    response.write(\'\\n                                        <li ><a href="\', escape=False)\n    response.write(URL(\'index\'))\n    response.write(\'">Flights</a></li>\\n                                        <li class="active li-first"><a href="\', escape=False)\n    response.write(URL(\'railway\'))\n    response.write(\'">Trains</a></li>\\n                                          <li ><a href="\', escape=False)\n    response.write(URL(\'bus_booking\'))\n    response.write(\'">Buses</a></li>\\n                                          <li ><a href="\', escape=False)\n    response.write(URL(\'hotel_search\'))\n    response.write(\'">Hotels</a></li>\\n                                        <li><a href="#">Package Deals</a></li>\\n                                          \\n                                        \', escape=False)\nelif session.var==3:\n    response.write(\'\\n                                        <li ><a href="\', escape=False)\n    response.write(URL(\'index\'))\n    response.write(\'">Flights</a></li>\\n                                        <li><a href="\', escape=False)\n    response.write(URL(\'railway\'))\n    response.write(\'">Trains</a></li>\\n                                          <li class="active li-first"><a href="\', escape=False)\n    response.write(URL(\'bus_booking\'))\n    response.write(\'">Buses</a></li>\\n                                          <li ><a href="\', escape=False)\n    response.write(URL(\'hotel_search\'))\n    response.write(\'">Hotels</a></li>\\n                                        <li><a href="#">Package Deals</a></li>\\n                                        \', escape=False)\nelif session.var==4:\n    response.write(\'\\n                                        <li ><a href="\', escape=False)\n    response.write(URL(\'index\'))\n    response.write(\'">Flights</a></li>\\n                                        <li><a href="\', escape=False)\n    response.write(URL(\'railway\'))\n    response.write(\'">Trains</a></li>\\n                                          <li><a href="\', escape=False)\n    response.write(URL(\'bus_booking\'))\n    response.write(\'">Buses</a></li>\\n                                          <li class="active li-first"><a href="\', escape=False)\n    response.write(URL(\'hotel_search\'))\n    response.write(\'">Hotels</a></li>\\n                                        <li><a href="#">Package Deals</a></li>\\n                                        \', escape=False)\nelse:\n    response.write(\'\\n                                        <li class="active li-first"><a href="\', escape=False)\n    response.write(URL(\'index\'))\n    response.write(\'">Flights</a></li>\\n                                        <li><a href="\', escape=False)\n    response.write(URL(\'railway\'))\n    response.write(\'">Trains</a></li>\\n                                          <li><a href="\', escape=False)\n    response.write(URL(\'bus_booking\'))\n    response.write(\'">Buses</a></li>\\n                                          <li><a href="\', escape=False)\n    response.write(URL(\'hotel_search\'))\n    response.write(\'">Hotels</a></li>\\n                                        <li><a href="#">Package Deals</a></li>\\n                                        \', escape=False)\n    pass\nresponse.write(\'\\n                                        </ul>\\n                                      \\n                                </div>\\n                                <!--SOCIAL LINKS ICONS SIDESECTION By Jigar-->\\n                                <!--<ul class="social-icons">\\n                                    <li><a href="#"><img src="img/icon-1.png" alt=""></a></li>\\n                                    <li><a href="#"><img src="img/icon-2.png" alt=""></a></li>\\n                                    <li><a href="#"><img src="img/icon-3.png" alt=""></a></li>\\n                                    <li><a href="#"><img src="img/icon-4.png" alt=""></a></li>\\n                                </ul>-->\\n                            </div>\\n                        </div>\\n                     </div>   \\n                </div>\\n            </div>\\n         </div>   \\n    </div>\\n    <div class="slider">\\n    <div class="camera_wrap">\\n        <div data-src="\', escape=False)\nresponse.write(URL(\'static\',\'images/1st.jpg\'))\nresponse.write(\'"></div>\\n        <div data-src="\', escape=False)\nresponse.write(URL(\'static\',\'images/2nd.jpg\'))\nresponse.write(\'"></div>\\n        <div data-src="\', escape=False)\nresponse.write(URL(\'static\',\'css_template/img/slide3.jpg\'))\nresponse.write(\'"></div>\\n        <div data-src="\', escape=False)\nresponse.write(URL(\'static\',\'css_template/img/slide4.jpg\'))\nresponse.write(\'"></div>\\n        <div data-src="\', escape=False)\nresponse.write(URL(\'static\',\'css_template/img/slide5.jpg\'))\nresponse.write(\'"></div>\\n        <div data-src="\', escape=False)\nresponse.write(URL(\'static\',\'css_template/img/slide6.jpg\'))\nresponse.write(\'"></div>\\n        <div data-src="\', escape=False)\nresponse.write(URL(\'static\',\'css_template/img/slide7.jpg\'))\nresponse.write(\'"></div>\\n    </div>\\n</div>\\n</header>\\n\\n<section id="content" class="main-content">\\n\', escape=False)\nresponse.write("\\n<head>\\n    <style>\\n        .Prevbook{\\n            width:100%;\\n            \\n        }\\n        .Prevbook tr:nth-child(1) td{\\n            font-weight:bold;\\n            font-size:16px;\\n        }\\n    </style>\\n</head>\\n</head>\\nHere is the list of your past and current bookings.\\n<br>\\n<br>\\n<h3><span style=\'text-align:center\'>Flight Bookings</h3></span>\\n<hr>\\n", escape=False)\nif (f2==0):\n    response.write(\'\\n<table class="Prevbook" cellpadding=\\\'6\\\'>\\n<tr>\\n<td>Flight Name</td>\\n<td>Date</td>\\n<td>Arrival Time</td>\\n<td>Departure time</td>\\n<td>Class</td>\\n<td>Price</td>\\n<td>Source</td>\\n<td>Destination</td>\\n<td>Passengers</td>\\n</tr>\\nPrevious Bookings\\n\', escape=False)\n    pass\nresponse.write(\'\\n\', escape=False)\nif f2==1:\n    response.write(\'\\nNo previous  bookings \\n\', escape=False)\n    pass\nresponse.write(\'\\n\', escape=False)\nfor i in range(len(flight)):\n    response.write(\'\\n\', escape=False)\n    if ((flight[i][\'d\']-d1)<datetime.timedelta(0)):\n        response.write(\'\\n<tr>\\n<td>\', escape=False)\n        response.write(flight[i][\'booked_in\'])\n        response.write(\'</td>\\n<td>\', escape=False)\n        response.write(flight[i][\'d\'])\n        response.write(\'</td>\\n    <td>\', escape=False)\n        response.write((flight[i][\'arrival\']).strftime(\'%I:%M %p\'))\n        response.write(\'</td>\\n    <td>\', escape=False)\n        response.write(flight[i][\'depart\'].strftime("%I:%M %p"))\n        response.write(\'</td>\\n<td>\', escape=False)\n        response.write(flight[i][\'cl\'])\n        response.write(\'</td>\\n<td>\', escape=False)\n        response.write(flight[i][\'price\'])\n        response.write(\'</td>\\n<td>\', escape=False)\n        response.write(flight[i][\'src\'])\n        response.write(\'</td>\\n<td>\', escape=False)\n        response.write(flight[i][\'dest\'])\n        response.write(\'</td>\\n<td>\', escape=False)\n        response.write(flight[i][\'passengers\'])\n        response.write(\'</td>\\n</tr>\\n<br>\\n<br>\\n\', escape=False)\n        pass\n    response.write(\'\\n\', escape=False)\n    pass\nresponse.write(\'\\n</table>\\n<br>\\n<br>\\n<br>\\n\', escape=False)\nif flag2==0:\n    response.write(\'\\n<table cellpadding=\\\'6\\\' class="Prevbook">\\n    <caption>Present Bookings</caption>\\n<tr>\\n<td>Flight Name</td>\\n<td>Date</td>\\n<td>Arrival Time</td>\\n<td>Departure time</td>\\n<td>Class</td>\\n<td>Price</td>\\n<td>Source</td>\\n<td>Destination</td>\\n<td>Passengers</td>\\n</tr>\\n\', escape=False)\n    pass\nresponse.write(\'\\n\', escape=False)\nif flag2==1:\n    response.write(\'\\nNo future bookings\\n\', escape=False)\n    pass\nresponse.write(\'\\n\', escape=False)\nfor i in range(len(flight)):\n    response.write(\'\\n\', escape=False)\n    if ((flight[i][\'d\']-d1)>=datetime.timedelta(0)):\n        response.write(\'\\n<tr>\\n<td>\', escape=False)\n        response.write(flight[i][\'booked_in\'].strftime("%d %b %Y"))\n        response.write(\'</td>\\n<td>\', escape=False)\n        response.write(flight[i][\'d\'].strftime("%d %b %Y"))\n        response.write(\'</td>\\n    <td>\', escape=False)\n        response.write((flight[i][\'arrival\']).strftime("%I:%M %p"))\n        response.write(\'</td>\\n    <td>\', escape=False)\n        response.write(flight[i][\'depart\'].strftime("%I:%M %p"))\n        response.write(\'</td>\\n<td>\', escape=False)\n        response.write(flight[i][\'cl\'])\n        response.write(\'</td>\\n<td>\', escape=False)\n        response.write(flight[i][\'price\'])\n        response.write(\'</td>\\n<td>\', escape=False)\n        response.write(flight[i][\'src\'])\n        response.write(\'</td>\\n<td>\', escape=False)\n        response.write(flight[i][\'dest\'])\n        response.write(\'</td>\\n<td>\', escape=False)\n        response.write(flight[i][\'passengers\'])\n        response.write(\'</td>\\n<td>\\n<a href="\', escape=False)\n        response.write(URL(\'dum\', args=(0,flight[i][\'id\'],flight[i][\'lis\'],flight[i][\'num\'],flight[i][\'booked_in\'],flight[i][\'cl\'],flight[i][\'src\'],flight[i][\'dest\'])))\n        response.write(\'"><button class=\\\'btn btn-inverse\\\'>CANCEL</button></a></td>\\n</tr>\\n\', escape=False)\n        pass\n    response.write(\'\\n\', escape=False)\n    pass\nresponse.write(\'\\n</table>\\n<br>\\n<br>\\n<br>\\n<h3>HOTEL BOOKINGS</h3>\\n<hr>\\n\', escape=False)\nif (f1==0):\n    response.write("\\n<table cellpadding=\'6\'>\\n<tr>\\n<td>Hotel Name</td>\\n<td>Checkin</td>\\n<td>Checkout</td>\\n<td>Hotel Code</td>\\n<td>Room code</td>\\n<td>Rooms</td>\\n</tr>\\nPrevious bookings:\\n", escape=False)\n    pass\nresponse.write(\'\\n\', escape=False)\nif (f1==1):\n    response.write(\'\\nNo previous bookings\\n\', escape=False)\n    pass\nresponse.write(\'\\n\', escape=False)\nfor i in range(len(rec)):\n    response.write(\'\\n\', escape=False)\n    if ((rec[i][\'checkin\']-d1)<datetime.timedelta(0)):\n        response.write(\'\\n<tr>\\n<td>\', escape=False)\n        response.write(rec[i][\'hotel_code\'])\n        response.write(\'</td>\\n<td>\', escape=False)\n        response.write(rec[i][\'checkin\'])\n        response.write(\'</td>\\n<td>\', escape=False)\n        response.write(rec[i][\'checkout\'])\n        response.write(\'</td>\\n<td>\', escape=False)\n        response.write(rec[i][\'hotel_code\'])\n        response.write(\'</td>\\n<td>\', escape=False)\n        response.write(rec[i][\'room_code\'])\n        response.write(\'</td>\\n<td>\', escape=False)\n        response.write(rec[i][\'rooms\'])\n        response.write(\'</td>\\n</tr>\\n\', escape=False)\n        pass\n    response.write(\'\\n\', escape=False)\n    pass\nresponse.write(\'\\n</table>\\n<br>\\n<br>\\n<br>\\n\', escape=False)\nif (flag1==0):\n    response.write("\\n<table cellpadding=\'6\'>\\n<tr>\\n<td>Hotel Name</td>\\n<td>Checkin</td>\\n<td>Checkout</td>\\n<td>Hotel Code</td>\\n<td>Room code</td>\\n<td>Rooms</td>\\n</tr>\\nFuture bookings:\\n", escape=False)\n    pass\nresponse.write(\'\\n\', escape=False)\nif (flag1==1) :\n    response.write(\'\\nNo bookings scheduled\\n\', escape=False)\n    pass\nresponse.write(\'\\n\', escape=False)\nfor i in range(len(rec)):\n    response.write(\'\\n\', escape=False)\n    if ((rec[i][\'checkin\']-d1)>=datetime.timedelta(0)):\n        response.write(\'\\n<tr>\\n<td>\', escape=False)\n        response.write(rec[i][\'hotel_code\'])\n        response.write(\'</td>\\n<td>\', escape=False)\n        response.write(rec[i][\'checkin\'])\n        response.write(\'</td>\\n<td>\', escape=False)\n        response.write(rec[i][\'checkout\'])\n        response.write(\'</td>\\n<td>\', escape=False)\n        response.write(rec[i][\'hotel_code\'])\n        response.write(\'</td>\\n<td>\', escape=False)\n        response.write(rec[i][\'room_code\'])\n        response.write(\'</td>\\n<td>\', escape=False)\n        response.write(rec[i][\'rooms\'])\n        response.write(\'</td>\\n<td>\\n<a href="\', escape=False)\n        response.write(URL(\'dum\', args=(\'1\',rec[i][\'id\'],rec[i][\'checkin\'],rec[i][\'checkout\'],rec[i][\'hotel_code\'],rec[i][\'rooms\'])))\n        response.write(\'"><button class=\\\'btn btn-inverse\\\'>CANCEL</button></a></td>\\n</tr>\\n\', escape=False)\n        pass\n    response.write(\'\\n\', escape=False)\n    pass\nresponse.write(\'\\n</table>\\n\\n<!--Are you sure you want to cancel the hotel booking??\\n<br>\\n<button class=\\\'btn btn-primary\\\'><a href="{{=URL(\\\'dum\\\',args=)>Cancel Flight</a></button>&nbsp;&nbsp;&nbsp;<button><a href="">Back</a></button>\\n-->\\n\', escape=False)\nresponse.write(\'\\n<div class="container">\\n    <div class="row">\\n      <div class="span12">        \\n        <ul class="thumbnails">\\n          <li class="span4">\\n            <div class="thumbnail">\\n              <div class="caption">\\n              \\t<img src="img/img-1.png" alt="">\\n                <h5>Most</h5>\\n                <h3>popular</h3>\\n              </div>  \\n              <div class="thumbnail-pad">\\n                  <p>Praesent vestibulum molestie lacus. Aenean noy hendrerit mauris. Phasellus porta. Fusce suscipit varius mi. </p>\\n                  <a href="#" class="btn btn_">more info</a>\\n              </div>\\n            </div>\\n          </li>\\n          <li class="span4">\\n            <div class="thumbnail">\\n              <div class="caption">\\n              \\t<img src="img/img-2.png" alt="">\\n                <h5>Beauty</h5>\\n                <h3>Gifts</h3>\\n              </div>  \\n              <div class="thumbnail-pad">\\n                  <p>Praesent vestibulum molestie lacus. Aenean my hendrerit mauris. Phasellus porta. Fusce suscipit varius mi. </p>\\n                  <a href="#" class="btn btn_">more info</a>\\n              </div>\\n            </div>\\n          </li>\\n          <li class="span4">\\n            <div class="thumbnail">\\n              <div class="caption">\\n              \\t<img src="img/img-4.png" alt="">\\n                <h5>Award-Winning</h5>\\n                <h3>Fragrances</h3>\\n              </div>\\n              <div class="thumbnail-pad">  \\n                  <p>Nonummy hendrerit mauris. Phasellus porta. Fusce suscipit varius mi. Cum sociis natoque penatibus et magnis.</p>\\n                  <a href="#" class="btn btn_">more info</a>\\n              </div>\\n            </div>\\n          </li>\\n        </ul>\\n      </div>\\n    </div>\\n</div>\\n  </section>\\n<footer>\\n   <div class="container">\\n    <div class="row">\\n      <div class="span4 float2">\\n        <form id="newsletter" method="post" >\\n            <label>Newsletter</label>\\n            <div class="clearfix">\\n                <input type="text" onFocus="if(this.value ==\\\'Enter e-mail here\\\' ) this.value=\\\'\\\'" onBlur="if(this.value==\\\'\\\') this.value=\\\'Enter e-mail here\\\'" value="Enter e-mail here" >\\n                <a href="#" onClick="document.getElementById(\\\'newsletter\\\').submit()" class="btn btn_">subscribe</a>\\n            </div>\\n        </form>\\n    </div>\\n    <div class="span8 float">\\n      \\t<ul class="footer-menu">\\n            \', escape=False)\nif session.var==4:\n    response.write(\'\\n            <li><a href="\', escape=False)\n    response.write(URL(\'index\'))\n    response.write(\'" >Flights</a>|</li>\\n            <li><a href="\', escape=False)\n    response.write(URL(\'railway\'))\n    response.write(\'">Trains</a>|</li>\\n            <li><a href="\', escape=False)\n    response.write(URL(\'bus_booking\'))\n    response.write(\'">Buses</a>|</li>\\n            <li><a href="\', escape=False)\n    response.write(URL(\'hotel_search\'))\n    response.write(\'" class="current">Hotels</a>|</li>\\n            <li><a href="index-4.html">Package Deals</a>|</li>\\n            \', escape=False)\nelif session.var==3:\n    response.write(\'\\n            <li><a href="\', escape=False)\n    response.write(URL(\'index\'))\n    response.write(\'">Flights</a>|</li>\\n            <li><a href="\', escape=False)\n    response.write(URL(\'railway\'))\n    response.write(\'">Trains</a>|</li>\\n            <li><a href="\', escape=False)\n    response.write(URL(\'bus_booking\'))\n    response.write(\'" class="current">Buses</a>|</li>\\n            <li><a href="\', escape=False)\n    response.write(URL(\'hotel_search\'))\n    response.write(\'">Hotels</a>|</li>\\n            <li><a href="index-4.html">Package Deals</a>|</li>\\n            \', escape=False)\nelif session.var==2:\n    response.write(\'\\n            <li><a href="\', escape=False)\n    response.write(URL(\'index\'))\n    response.write(\'">Flights</a>|</li>\\n            <li><a href="\', escape=False)\n    response.write(URL(\'railway\'))\n    response.write(\'"  class="current">Trains</a>|</li>\\n            <li><a href="\', escape=False)\n    response.write(URL(\'bus_booking\'))\n    response.write(\'">Buses</a>|</li>\\n            <li><a href="\', escape=False)\n    response.write(URL(\'hotel_search\'))\n    response.write(\'">Hotels</a>|</li>\\n            <li><a href="index-4.html">Package Deals</a>|</li>\\n            \', escape=False)\nelse:\n    response.write(\'\\n        \\t<li><a href="\', escape=False)\n    response.write(URL(\'index\'))\n    response.write(\'" class="current">Flights</a>|</li>\\n            <li><a href="\', escape=False)\n    response.write(URL(\'railway\'))\n    response.write(\'">Trains</a>|</li>\\n            <li><a href="\', escape=False)\n    response.write(URL(\'bus_booking\'))\n    response.write(\'">Buses</a>|</li>\\n            <li><a href="\', escape=False)\n    response.write(URL(\'hotel_search\'))\n    response.write(\'">Hotels</a>|</li>\\n            <li><a href="index-4.html">Package Deals</a>|</li>\\n            \', escape=False)\n    pass\nresponse.write(\'\\n            \\n        </ul>\\n      \\tCopyright &copy;  IIIT Hyderabad SSAD Team-9 <!-- {%FOOTER_LINK} -->\\n\\n<br />\\n        Joint efforts of<br/>\\n        <table>\\n            <tr><td>Ayush Khandelwal</td></tr><tr><td>Gaurav Mohanty</td></tr><tr><td>Jigar Thakkar</td></tr><tr><td>Prabhsimram Sing Baweja</td></tr>\\n            </table>\\n</div>\\n\\n\\n      </div>\\n    </div>\\n</footer>\\n<script type="text/javascript" src="\', escape=False)\nresponse.write(URL(\'static\',\'js/bootstrap.js\'))\nresponse.write(\'"></script>\\n</body>\\n</html>\\n\', escape=False)'
p7
sS'snapshot'
p8
(dp9
S'exception'
p10
(dp11
S'__hash__'
p12
S"<method-wrapper '__hash__' of exceptions.AttributeError object>"
p13
sS'__setattr__'
p14
S"<method-wrapper '__setattr__' of exceptions.AttributeError object>"
p15
sS'__reduce_ex__'
p16
S'<built-in method __reduce_ex__ of exceptions.AttributeError object>'
p17
sS'__getslice__'
p18
S"<method-wrapper '__getslice__' of exceptions.AttributeError object>"
p19
sS'__getitem__'
p20
S"<method-wrapper '__getitem__' of exceptions.AttributeError object>"
p21
sS'__setstate__'
p22
S'<built-in method __setstate__ of exceptions.AttributeError object>'
p23
sS'args'
p24
S'("\'str\' object has no attribute \'strftime\'",)'
p25
sS'__reduce__'
p26
S'<built-in method __reduce__ of exceptions.AttributeError object>'
p27
sS'__str__'
p28
S"<method-wrapper '__str__' of exceptions.AttributeError object>"
p29
sS'__format__'
p30
S'<built-in method __format__ of exceptions.AttributeError object>'
p31
sS'__getattribute__'
p32
S"<method-wrapper '__getattribute__' of exceptions.AttributeError object>"
p33
sS'__class__'
p34
S"<type 'exceptions.AttributeError'>"
p35
sS'__unicode__'
p36
S'<built-in method __unicode__ of exceptions.AttributeError object>'
p37
sS'__delattr__'
p38
S"<method-wrapper '__delattr__' of exceptions.AttributeError object>"
p39
sS'__subclasshook__'
p40
S'<built-in method __subclasshook__ of type object>'
p41
sS'__repr__'
p42
S"<method-wrapper '__repr__' of exceptions.AttributeError object>"
p43
sS'__dict__'
p44
S'{}'
p45
sS'__sizeof__'
p46
S'<built-in method __sizeof__ of exceptions.AttributeError object>'
p47
sS'__doc__'
p48
S"'Attribute not found.'"
p49
sS'__init__'
p50
S"<method-wrapper '__init__' of exceptions.AttributeError object>"
p51
sS'__new__'
p52
S'<built-in method __new__ of type object>'
p53
ssS'evalue'
p54
S"'str' object has no attribute 'strftime'"
p55
sS'request'
p56
cgluon.html
XML_unpickle
p57
(S's\xc9_\x00\x00<div><table><tr><td style="font-weight:bold;vertical-align:top;">ajax</td><td style="vertical-align:top;">:</td><td><div>False</div></td></tr><tr><td style="font-weight:bold;vertical-align:top;">application</td><td style="vertical-align:top;">:</td><td><div>UIpart</div></td></tr><tr><td style="font-weight:bold;vertical-align:top;">args</td><td style="vertical-align:top;">:</td><td><div><table></table></div></td></tr><tr><td style="font-weight:bold;vertical-align:top;">cid</td><td style="vertical-align:top;">:</td><td><div>None</div></td></tr><tr><td style="font-weight:bold;vertical-align:top;">client</td><td style="vertical-align:top;">:</td><td><div>127.0.0.1</div></td></tr><tr><td style="font-weight:bold;vertical-align:top;">controller</td><td style="vertical-align:top;">:</td><td><div>default</div></td></tr><tr><td style="font-weight:bold;vertical-align:top;">cookies</td><td style="vertical-align:top;">:</td><td><div><table><tr><td style="font-weight:bold;vertical-align:top;">session_id_admin</td><td style="vertical-align:top;">:</td><td><div>127.0.0.1-c94c7c22-ebde-4e04-acfe-b4aa464af4ef<table><tr><td style="font-weight:bold;vertical-align:top;">comment</td><td style="vertical-align:top;">:</td><td><div></div></td></tr><tr><td style="font-weight:bold;vertical-align:top;">domain</td><td style="vertical-align:top;">:</td><td><div></div></td></tr><tr><td style="font-weight:bold;vertical-align:top;">expires</td><td style="vertical-align:top;">:</td><td><div></div></td></tr><tr><td style="font-weight:bold;vertical-align:top;">httponly</td><td style="vertical-align:top;">:</td><td><div></div></td></tr><tr><td style="font-weight:bold;vertical-align:top;">max-age</td><td style="vertical-align:top;">:</td><td><div></div></td></tr><tr><td style="font-weight:bold;vertical-align:top;">path</td><td style="vertical-align:top;">:</td><td><div></div></td></tr><tr><td style="font-weight:bold;vertical-align:top;">secure</td><td style="vertical-align:top;">:</td><td><div></div></td></tr><tr><td style="font-weight:bold;vertical-align:top;">version</td><td style="vertical-align:top;">:</td><td><div></div></td></tr></table></div></td></tr><tr><td style="font-weight:bold;vertical-align:top;">session_id_ssad</td><td style="vertical-align:top;">:</td><td><div>127.0.0.1-7830f68a-4544-4df4-b73b-e7749e80dcf1<table><tr><td style="font-weight:bold;vertical-align:top;">comment</td><td style="vertical-align:top;">:</td><td><div></div></td></tr><tr><td style="font-weight:bold;vertical-align:top;">domain</td><td style="vertical-align:top;">:</td><td><div></div></td></tr><tr><td style="font-weight:bold;vertical-align:top;">expires</td><td style="vertical-align:top;">:</td><td><div></div></td></tr><tr><td style="font-weight:bold;vertical-align:top;">httponly</td><td style="vertical-align:top;">:</td><td><div></div></td></tr><tr><td style="font-weight:bold;vertical-align:top;">max-age</td><td style="vertical-align:top;">:</td><td><div></div></td></tr><tr><td style="font-weight:bold;vertical-align:top;">path</td><td style="vertical-align:top;">:</td><td><div></div></td></tr><tr><td style="font-weight:bold;vertical-align:top;">secure</td><td style="vertical-align:top;">:</td><td><div></div></td></tr><tr><td style="font-weight:bold;vertical-align:top;">version</td><td style="vertical-align:top;">:</td><td><div></div></td></tr></table></div></td></tr><tr><td style="font-weight:bold;vertical-align:top;">session_id_uipart</td><td style="vertical-align:top;">:</td><td><div>127.0.0.1-f42be818-e2f8-4024-8fed-d86d80eacb8b<table><tr><td style="font-weight:bold;vertical-align:top;">comment</td><td style="vertical-align:top;">:</td><td><div></div></td></tr><tr><td style="font-weight:bold;vertical-align:top;">domain</td><td style="vertical-align:top;">:</td><td><div></div></td></tr><tr><td style="font-weight:bold;vertical-align:top;">expires</td><td style="vertical-align:top;">:</td><td><div></div></td></tr><tr><td style="font-weight:bold;vertical-align:top;">httponly</td><td style="vertical-align:top;">:</td><td><div></div></td></tr><tr><td style="font-weight:bold;vertical-align:top;">max-age</td><td style="vertical-align:top;">:</td><td><div></div></td></tr><tr><td style="font-weight:bold;vertical-align:top;">path</td><td style="vertical-align:top;">:</td><td><div></div></td></tr><tr><td style="font-weight:bold;vertical-align:top;">secure</td><td style="vertical-align:top;">:</td><td><div></div></td></tr><tr><td style="font-weight:bold;vertical-align:top;">version</td><td style="vertical-align:top;">:</td><td><div></div></td></tr></table></div></td></tr><tr><td style="font-weight:bold;vertical-align:top;">session_id_welcome</td><td style="vertical-align:top;">:</td><td><div>127.0.0.1-caa2744b-10eb-465b-a1eb-808c197b082a<table><tr><td style="font-weight:bold;vertical-align:top;">comment</td><td style="vertical-align:top;">:</td><td><div></div></td></tr><tr><td style="font-weight:bold;vertical-align:top;">domain</td><td style="vertical-align:top;">:</td><td><div></div></td></tr><tr><td style="font-weight:bold;vertical-align:top;">expires</td><td style="vertical-align:top;">:</td><td><div></div></td></tr><tr><td style="font-weight:bold;vertical-align:top;">httponly</td><td style="vertical-align:top;">:</td><td><div></div></td></tr><tr><td style="font-weight:bold;vertical-align:top;">max-age</td><td style="vertical-align:top;">:</td><td><div></div></td></tr><tr><td style="font-weight:bold;vertical-align:top;">path</td><td style="vertical-align:top;">:</td><td><div></div></td></tr><tr><td style="font-weight:bold;vertical-align:top;">secure</td><td style="vertical-align:top;">:</td><td><div></div></td></tr><tr><td style="font-weight:bold;vertical-align:top;">version</td><td style="vertical-align:top;">:</td><td><div></div></td></tr></table></div></td></tr></table></div></td></tr><tr><td style="font-weight:bold;vertical-align:top;">env</td><td style="vertical-align:top;">:</td><td><div><table><tr><td style="font-weight:bold;vertical-align:top;">HTTP_ACCEPT</td><td style="vertical-align:top;">:</td><td><div>text/html,application/xhtml+xml,application/xml;q=0.9,*/*;q=0.8</div></td></tr><tr><td style="font-weight:bold;vertical-align:top;">HTTP_ACCEPT_ENCODING</td><td style="vertical-align:top;">:</td><td><div>gzip, deflate</div></td></tr><tr><td style="font-weight:bold;vertical-align:top;">HTTP_ACCEPT_LANGUAGE</td><td style="vertical-align:top;">:</td><td><div>en-US,en;q=0.5</div></td></tr><tr><td style="font-weight:bold;vertical-align:top;">HTTP_CACHE_CONTROL</td><td style="vertical-align:top;">:</td><td><div>max-age=0</div></td></tr><tr><td style="font-weight:bold;vertical-align:top;">HTTP_CONNECTION</td><td style="vertical-align:top;">:</td><td><div>keep-alive</div></td></tr><tr><td style="font-weight:bold;vertical-align:top;">HTTP_COOKIE</td><td style="vertical-align:top;">:</td><td><div>session_id_welcome=127.0.0.1-caa2744b-10eb-465b-a1eb-808c197b082a; session_id_admin=127.0.0.1-c94c7c22-ebde-4e04-acfe-b4aa464af4ef; session_id_uipart=127.0.0.1-f42be818-e2f8-4024-8fed-d86d80eacb8b; session_id_ssad=127.0.0.1-7830f68a-4544-4df4-b73b-e7749e80dcf1</div></td></tr><tr><td style="font-weight:bold;vertical-align:top;">HTTP_HOST</td><td style="vertical-align:top;">:</td><td><div>127.0.0.1:8000</div></td></tr><tr><td style="font-weight:bold;vertical-align:top;">HTTP_USER_AGENT</td><td style="vertical-align:top;">:</td><td><div>Mozilla/5.0 (X11; Ubuntu; Linux x86_64; rv:25.0) Gecko/20100101 Firefox/25.0</div></td></tr><tr><td style="font-weight:bold;vertical-align:top;">PATH_INFO</td><td style="vertical-align:top;">:</td><td><div>/UIpart/default/viewbookings</div></td></tr><tr><td style="font-weight:bold;vertical-align:top;">QUERY_STRING</td><td style="vertical-align:top;">:</td><td><div></div></td></tr><tr><td style="font-weight:bold;vertical-align:top;">REMOTE_ADDR</td><td style="vertical-align:top;">:</td><td><div>127.0.0.1</div></td></tr><tr><td style="font-weight:bold;vertical-align:top;">REMOTE_PORT</td><td style="vertical-align:top;">:</td><td><div>50972</div></td></tr><tr><td style="font-weight:bold;vertical-align:top;">REQUEST_METHOD</td><td style="vertical-align:top;">:</td><td><div>GET</div></td></tr><tr><td style="font-weight:bold;vertical-align:top;">SCRIPT_NAME</td><td style="vertical-align:top;">:</td><td><div></div></td></tr><tr><td style="font-weight:bold;vertical-align:top;">SERVER_NAME</td><td style="vertical-align:top;">:</td><td><div>prabhsimran-Inspiron-7520</div></td></tr><tr><td style="font-weight:bold;vertical-align:top;">SERVER_PORT</td><td style="vertical-align:top;">:</td><td><div>8000</div></td></tr><tr><td style="font-weight:bold;vertical-align:top;">SERVER_PROTOCOL</td><td style="vertical-align:top;">:</td><td><div>HTTP/1.1</div></td></tr><tr><td style="font-weight:bold;vertical-align:top;">SERVER_SOFTWARE</td><td style="vertical-align:top;">:</td><td><div>Rocket 1.2.6</div></td></tr><tr><td style="font-weight:bold;vertical-align:top;">app_folders</td><td style="vertical-align:top;">:</td><td><div>set([&#x27;/home/prabhsimran/web2py/applications/welcome/&#x27;, &#x27;/home/prabhsimran/web2py/applications/admin/&#x27;, &#x27;/home/prabhsimran/web2py/applications/UIpart/&#x27;, &#x27;/home/prabhsimran/web2py/applications/ssad/&#x27;])</div></td></tr><tr><td style="font-weight:bold;vertical-align:top;">applications_parent</td><td style="vertical-align:top;">:</td><td><div>/home/prabhsimran/web2py</div></td></tr><tr><td style="font-weight:bold;vertical-align:top;">cmd_args</td><td style="vertical-align:top;">:</td><td><div><table></table></div></td></tr><tr><td style="font-weight:bold;vertical-align:top;">cmd_options</td><td style="vertical-align:top;">:</td><td><div>&lt;Values at 0x1b2de18: {&#x27;verbose&#x27;: False, &#x27;ip&#x27;: &#x27;127.0.0.1&#x27;, &#x27;debuglevel&#x27;: 30, &#x27;with_scheduler&#x27;: False, &#x27;ips&#x27;: [&#x27;127.0.1.1&#x27;], &#x27;shutdown_timeout&#x27;: 5, &#x27;taskbar&#x27;: False, &#x27;with_coverage&#x27;: False, &#x27;port&#x27;: 8000, &#x27;maxthreads&#x27;: None, &#x27;softcron&#x27;: False, &#x27;server_name&#x27;: &#x27;prabhsimran-Inspiron-7520&#x27;, &#x27;bpython&#x27;: False, &#x27;nogui&#x27;: False, &#x27;pid_filename&#x27;: &#x27;httpserver.pid&#x27;, &#x27;extcron&#x27;: False, &#x27;runcron&#x27;: False, &#x27;run_system_tests&#x27;: False, &#x27;test&#x27;: None, &#x27;folder&#x27;: &#x27;/home/prabhsimran/web2py&#x27;, &#x27;config&#x27;: &#x27;&#x27;, &#x27;minthreads&#x27;: None, &#x27;winservice&#x27;: &#x27;&#x27;, &#x27;shell&#x27;: None, &#x27;run&#x27;: &#x27;&#x27;, &#x27;log_filename&#x27;: &#x27;httpserver.log&#x27;, &#x27;profiler_dir&#x27;: None, &#x27;args&#x27;: [&#x27;&#x27;], &#x27;socket_timeout&#x27;: 5, &#x27;ssl_ca_certificate&#x27;: None, &#x27;scheduler&#x27;: None, &#x27;interfaces&#x27;: None, &#x27;ssl_private_key&#x27;: &#x27;&#x27;, &#x27;scheduler_groups&#x27;: None, &#x27;password&#x27;: &#x27;&lt;ask&gt;&#x27;, &#x27;request_queue_size&#x27;: 5, &#x27;ssl_certificate&#x27;: &#x27;&#x27;, &#x27;cronjob&#x27;: False, &#x27;numthreads&#x27;: None, &#x27;quiet&#x27;: False, &#x27;import_models&#x27;: False, &#x27;timeout&#x27;: 10, &#x27;plain&#x27;: False, &#x27;nobanner&#x27;: False}&gt;</div></td></tr><tr><td style="font-weight:bold;vertical-align:top;">db_sessions</td><td style="vertical-align:top;">:</td><td><div>set([])</div></td></tr><tr><td style="font-weight:bold;vertical-align:top;">debugging</td><td style="vertical-align:top;">:</td><td><div>True</div></td></tr><tr><td style="font-weight:bold;vertical-align:top;">gluon_parent</td><td style="vertical-align:top;">:</td><td><div>/home/prabhsimran/web2py</div></td></tr><tr><td style="font-weight:bold;vertical-align:top;">http_accept</td><td style="vertical-align:top;">:</td><td><div>text/html,application/xhtml+xml,application/xml;q=0.9,*/*;q=0.8</div></td></tr><tr><td style="font-weight:bold;vertical-align:top;">http_accept_encoding</td><td style="vertical-align:top;">:</td><td><div>gzip, deflate</div></td></tr><tr><td style="font-weight:bold;vertical-align:top;">http_accept_language</td><td style="vertical-align:top;">:</td><td><div>en-US,en;q=0.5</div></td></tr><tr><td style="font-weight:bold;vertical-align:top;">http_cache_control</td><td style="vertical-align:top;">:</td><td><div>max-age=0</div></td></tr><tr><td style="font-weight:bold;vertical-align:top;">http_connection</td><td style="vertical-align:top;">:</td><td><div>keep-alive</div></td></tr><tr><td style="font-weight:bold;vertical-align:top;">http_cookie</td><td style="vertical-align:top;">:</td><td><div>session_id_welcome=127.0.0.1-caa2744b-10eb-465b-a1eb-808c197b082a; session_id_admin=127.0.0.1-c94c7c22-ebde-4e04-acfe-b4aa464af4ef; session_id_uipart=127.0.0.1-f42be818-e2f8-4024-8fed-d86d80eacb8b; session_id_ssad=127.0.0.1-7830f68a-4544-4df4-b73b-e7749e80dcf1</div></td></tr><tr><td style="font-weight:bold;vertical-align:top;">http_host</td><td style="vertical-align:top;">:</td><td><div>127.0.0.1:8000</div></td></tr><tr><td style="font-weight:bold;vertical-align:top;">http_user_agent</td><td style="vertical-align:top;">:</td><td><div>Mozilla/5.0 (X11; Ubuntu; Linux x86_64; rv:25.0) Gecko/20100101 Firefox/25.0</div></td></tr><tr><td style="font-weight:bold;vertical-align:top;">is_jython</td><td style="vertical-align:top;">:</td><td><div>False</div></td></tr><tr><td style="font-weight:bold;vertical-align:top;">is_pypy</td><td style="vertical-align:top;">:</td><td><div>False</div></td></tr><tr><td style="font-weight:bold;vertical-align:top;">is_source</td><td style="vertical-align:top;">:</td><td><div>True</div></td></tr><tr><td style="font-weight:bold;vertical-align:top;">local_hosts</td><td style="vertical-align:top;">:</td><td><div><table><tr><td><div>::1</div></td></tr><tr><td><div>127.0.1.1</div></td></tr><tr><td><div>::ffff:127.0.0.1</div></td></tr><tr><td><div>127.0.0.1</div></td></tr><tr><td><div>prabhsimran-Inspiron-7520</div></td></tr></table></div></td></tr><tr><td style="font-weight:bold;vertical-align:top;">path_info</td><td style="vertical-align:top;">:</td><td><div>/UIpart/default/viewbookings</div></td></tr><tr><td style="font-weight:bold;vertical-align:top;">query_string</td><td style="vertical-align:top;">:</td><td><div></div></td></tr><tr><td style="font-weight:bold;vertical-align:top;">remote_addr</td><td style="vertical-align:top;">:</td><td><div>127.0.0.1</div></td></tr><tr><td style="font-weight:bold;vertical-align:top;">remote_port</td><td style="vertical-align:top;">:</td><td><div>50972</div></td></tr><tr><td style="font-weight:bold;vertical-align:top;">request_method</td><td style="vertical-align:top;">:</td><td><div>GET</div></td></tr><tr><td style="font-weight:bold;vertical-align:top;">request_uri</td><td style="vertical-align:top;">:</td><td><div>/UIpart/default/viewbookings</div></td></tr><tr><td style="font-weight:bold;vertical-align:top;">script_name</td><td style="vertical-align:top;">:</td><td><div></div></td></tr><tr><td style="font-weight:bold;vertical-align:top;">server_name</td><td style="vertical-align:top;">:</td><td><div>prabhsimran-Inspiron-7520</div></td></tr><tr><td style="font-weight:bold;vertical-align:top;">server_port</td><td style="vertical-align:top;">:</td><td><div>8000</div></td></tr><tr><td style="font-weight:bold;vertical-align:top;">server_protocol</td><td style="vertical-align:top;">:</td><td><div>HTTP/1.1</div></td></tr><tr><td style="font-weight:bold;vertical-align:top;">server_software</td><td style="vertical-align:top;">:</td><td><div>Rocket 1.2.6</div></td></tr><tr><td style="font-weight:bold;vertical-align:top;">web2py_path</td><td style="vertical-align:top;">:</td><td><div>/home/prabhsimran/web2py</div></td></tr><tr><td style="font-weight:bold;vertical-align:top;">web2py_version</td><td style="vertical-align:top;">:</td><td><div>2.7.4-stable+timestamp.2013.10.14.15.16.29</div></td></tr><tr><td style="font-weight:bold;vertical-align:top;">wsgi.errors</td><td style="vertical-align:top;">:</td><td><div>&lt;open file &#x27;&lt;stderr&gt;&#x27;, mode &#x27;w&#x27; at 0x7ff10a1e11e0&gt;</div></td></tr><tr><td style="font-weight:bold;vertical-align:top;">wsgi.file_wrapper</td><td style="vertical-align:top;">:</td><td><div>&lt;class wsgiref.util.FileWrapper at 0x1a7ce20&gt;</div></td></tr><tr><td style="font-weight:bold;vertical-align:top;">wsgi.input</td><td style="vertical-align:top;">:</td><td><div>&lt;socket._fileobject object at 0x7ff0dc4fe250&gt;</div></td></tr><tr><td style="font-weight:bold;vertical-align:top;">wsgi.multiprocess</td><td style="vertical-align:top;">:</td><td><div>False</div></td></tr><tr><td style="font-weight:bold;vertical-align:top;">wsgi.multithread</td><td style="vertical-align:top;">:</td><td><div>True</div></td></tr><tr><td style="font-weight:bold;vertical-align:top;">wsgi.run_once</td><td style="vertical-align:top;">:</td><td><div>False</div></td></tr><tr><td style="font-weight:bold;vertical-align:top;">wsgi.url_scheme</td><td style="vertical-align:top;">:</td><td><div>http</div></td></tr><tr><td style="font-weight:bold;vertical-align:top;">wsgi.version</td><td style="vertical-align:top;">:</td><td><div><table><tr><td><div>1</div></td></tr><tr><td><div>0</div></td></tr></table></div></td></tr><tr><td style="font-weight:bold;vertical-align:top;">wsgi_errors</td><td style="vertical-align:top;">:</td><td><div>&lt;open file &#x27;&lt;stderr&gt;&#x27;, mode &#x27;w&#x27; at 0x7ff10a1e11e0&gt;</div></td></tr><tr><td style="font-weight:bold;vertical-align:top;">wsgi_file_wrapper</td><td style="vertical-align:top;">:</td><td><div>&lt;class wsgiref.util.FileWrapper at 0x1a7ce20&gt;</div></td></tr><tr><td style="font-weight:bold;vertical-align:top;">wsgi_input</td><td style="vertical-align:top;">:</td><td><div>&lt;socket._fileobject object at 0x7ff0dc4fe250&gt;</div></td></tr><tr><td style="font-weight:bold;vertical-align:top;">wsgi_multiprocess</td><td style="vertical-align:top;">:</td><td><div>False</div></td></tr><tr><td style="font-weight:bold;vertical-align:top;">wsgi_multithread</td><td style="vertical-align:top;">:</td><td><div>True</div></td></tr><tr><td style="font-weight:bold;vertical-align:top;">wsgi_run_once</td><td style="vertical-align:top;">:</td><td><div>False</div></td></tr><tr><td style="font-weight:bold;vertical-align:top;">wsgi_url_scheme</td><td style="vertical-align:top;">:</td><td><div>http</div></td></tr><tr><td style="font-weight:bold;vertical-align:top;">wsgi_version</td><td style="vertical-align:top;">:</td><td><div><table><tr><td><div>1</div></td></tr><tr><td><div>0</div></td></tr></table></div></td></tr></table></div></td></tr><tr><td style="font-weight:bold;vertical-align:top;">extension</td><td style="vertical-align:top;">:</td><td><div>html</div></td></tr><tr><td style="font-weight:bold;vertical-align:top;">folder</td><td style="vertical-align:top;">:</td><td><div>/home/prabhsimran/web2py/applications/UIpart/</div></td></tr><tr><td style="font-weight:bold;vertical-align:top;">function</td><td style="vertical-align:top;">:</td><td><div>viewbookings</div></td></tr><tr><td style="font-weight:bold;vertical-align:top;">global_settings</td><td style="vertical-align:top;">:</td><td><div><table><tr><td style="font-weight:bold;vertical-align:top;">app_folders</td><td style="vertical-align:top;">:</td><td><div>set([&#x27;/home/prabhsimran/web2py/applications/welcome/&#x27;, &#x27;/home/prabhsimran/web2py/applications/admin/&#x27;, &#x27;/home/prabhsimran/web2py/applications/UIpart/&#x27;, &#x27;/home/prabhsimran/web2py/applications/ssad/&#x27;])</div></td></tr><tr><td style="font-weight:bold;vertical-align:top;">applications_parent</td><td style="vertical-align:top;">:</td><td><div>/home/prabhsimran/web2py</div></td></tr><tr><td style="font-weight:bold;vertical-align:top;">cmd_args</td><td style="vertical-align:top;">:</td><td><div><table></table></div></td></tr><tr><td style="font-weight:bold;vertical-align:top;">cmd_options</td><td style="vertical-align:top;">:</td><td><div>&lt;Values at 0x1b2de18: {&#x27;verbose&#x27;: False, &#x27;ip&#x27;: &#x27;127.0.0.1&#x27;, &#x27;debuglevel&#x27;: 30, &#x27;with_scheduler&#x27;: False, &#x27;ips&#x27;: [&#x27;127.0.1.1&#x27;], &#x27;shutdown_timeout&#x27;: 5, &#x27;taskbar&#x27;: False, &#x27;with_coverage&#x27;: False, &#x27;port&#x27;: 8000, &#x27;maxthreads&#x27;: None, &#x27;softcron&#x27;: False, &#x27;server_name&#x27;: &#x27;prabhsimran-Inspiron-7520&#x27;, &#x27;bpython&#x27;: False, &#x27;nogui&#x27;: False, &#x27;pid_filename&#x27;: &#x27;httpserver.pid&#x27;, &#x27;extcron&#x27;: False, &#x27;runcron&#x27;: False, &#x27;run_system_tests&#x27;: False, &#x27;test&#x27;: None, &#x27;folder&#x27;: &#x27;/home/prabhsimran/web2py&#x27;, &#x27;config&#x27;: &#x27;&#x27;, &#x27;minthreads&#x27;: None, &#x27;winservice&#x27;: &#x27;&#x27;, &#x27;shell&#x27;: None, &#x27;run&#x27;: &#x27;&#x27;, &#x27;log_filename&#x27;: &#x27;httpserver.log&#x27;, &#x27;profiler_dir&#x27;: None, &#x27;args&#x27;: [&#x27;&#x27;], &#x27;socket_timeout&#x27;: 5, &#x27;ssl_ca_certificate&#x27;: None, &#x27;scheduler&#x27;: None, &#x27;interfaces&#x27;: None, &#x27;ssl_private_key&#x27;: &#x27;&#x27;, &#x27;scheduler_groups&#x27;: None, &#x27;password&#x27;: &#x27;&lt;ask&gt;&#x27;, &#x27;request_queue_size&#x27;: 5, &#x27;ssl_certificate&#x27;: &#x27;&#x27;, &#x27;cronjob&#x27;: False, &#x27;numthreads&#x27;: None, &#x27;quiet&#x27;: False, &#x27;import_models&#x27;: False, &#x27;timeout&#x27;: 10, &#x27;plain&#x27;: False, &#x27;nobanner&#x27;: False}&gt;</div></td></tr><tr><td style="font-weight:bold;vertical-align:top;">db_sessions</td><td style="vertical-align:top;">:</td><td><div>set([])</div></td></tr><tr><td style="font-weight:bold;vertical-align:top;">debugging</td><td style="vertical-align:top;">:</td><td><div>True</div></td></tr><tr><td style="font-weight:bold;vertical-align:top;">gluon_parent</td><td style="vertical-align:top;">:</td><td><div>/home/prabhsimran/web2py</div></td></tr><tr><td style="font-weight:bold;vertical-align:top;">is_jython</td><td style="vertical-align:top;">:</td><td><div>False</div></td></tr><tr><td style="font-weight:bold;vertical-align:top;">is_pypy</td><td style="vertical-align:top;">:</td><td><div>False</div></td></tr><tr><td style="font-weight:bold;vertical-align:top;">is_source</td><td style="vertical-align:top;">:</td><td><div>True</div></td></tr><tr><td style="font-weight:bold;vertical-align:top;">local_hosts</td><td style="vertical-align:top;">:</td><td><div><table><tr><td><div>::1</div></td></tr><tr><td><div>127.0.1.1</div></td></tr><tr><td><div>::ffff:127.0.0.1</div></td></tr><tr><td><div>127.0.0.1</div></td></tr><tr><td><div>prabhsimran-Inspiron-7520</div></td></tr></table></div></td></tr><tr><td style="font-weight:bold;vertical-align:top;">web2py_version</td><td style="vertical-align:top;">:</td><td><div>2.7.4-stable+timestamp.2013.10.14.15.16.29</div></td></tr></table></div></td></tr><tr><td style="font-weight:bold;vertical-align:top;">is_https</td><td style="vertical-align:top;">:</td><td><div>False</div></td></tr><tr><td style="font-weight:bold;vertical-align:top;">is_local</td><td style="vertical-align:top;">:</td><td><div>True</div></td></tr><tr><td style="font-weight:bold;vertical-align:top;">is_restful</td><td style="vertical-align:top;">:</td><td><div>False</div></td></tr><tr><td style="font-weight:bold;vertical-align:top;">now</td><td style="vertical-align:top;">:</td><td><div>datetime.datetime(2013, 12, 2, 3, 24, 20, 815128)</div></td></tr><tr><td style="font-weight:bold;vertical-align:top;">raw_args</td><td style="vertical-align:top;">:</td><td><div></div></td></tr><tr><td style="font-weight:bold;vertical-align:top;">raw_extension</td><td style="vertical-align:top;">:</td><td><div>None</div></td></tr><tr><td style="font-weight:bold;vertical-align:top;">url</td><td style="vertical-align:top;">:</td><td><div>/UIpart/default/viewbookings</div></td></tr><tr><td style="font-weight:bold;vertical-align:top;">utcnow</td><td style="vertical-align:top;">:</td><td><div>datetime.datetime(2013, 12, 1, 21, 54, 20, 815176)</div></td></tr><tr><td style="font-weight:bold;vertical-align:top;">uuid</td><td style="vertical-align:top;">:</td><td><div>UIpart/127.0.0.1.2013-12-02.03-24-20.6fa2e1d7-31ab-483a-996b-d53c2419d7ff</div></td></tr><tr><td style="font-weight:bold;vertical-align:top;">wsgi</td><td style="vertical-align:top;">:</td><td><div>&lt;gluon.main.LazyWSGI object at 0x7ff0f05cd810&gt;</div></td></tr></table></div>'
tRp58
sS'frames'
p59
(lp60
(dp61
S'file'
p62
S'/home/prabhsimran/web2py/gluon/restricted.py'
p63
sS'dump'
p64
(dp65
S'environment'
p66
S"{'A': <class 'gluon.html.A'>, 'ANY_OF': <class 'gluon.validators.ANY_OF'>, 'Auth': <class 'gluon.tools.Auth'>, 'B': <class 'gluon.html.B'>, 'BEAUTIFY': <class 'gluon.html.BEAUTIFY'>, 'BODY': <class 'gluon.html.BODY'>, 'BR': <class 'gluon.html.BR'>, 'BUTTON': <class 'gluon.html.BUTTON'>, 'CAT': <class 'gluon.html.CAT'>, 'CENTER': <class 'gluon.html.CENTER'>, ...}"
p67
sS'ccode'
p68
S'<code object <module> at 0x7ff0d06905b0, file "/.../UIpart/views/default/viewbookings.html", line 1>'
p69
ssS'lnum'
p70
I217
sS'lines'
p71
(dp72
I212
S'    try:'
p73
sI213
S'        if isinstance(code, types.CodeType):'
p74
sI214
S'            ccode = code'
p75
sI215
S'        else:'
p76
sI216
S'            ccode = compile2(code, layer)'
p77
sI217
S'        exec ccode in environment'
p78
sI218
S'    except HTTP:'
p79
sI219
S'        raise'
p80
sI220
S'    except RestrictedError:'
p81
sI221
S'        # do not encapsulate (obfuscate) the original RestrictedError'
p82
ssS'call'
p83
S'(code=\'response.write(\\\'<!DOCTYPE html>\\\\n<html lang="en"...(\\\'"></script>\\\\n</body>\\\\n</html>\\\\n\\\', escape=False)\', environment={\'A\': <class \'gluon.html.A\'>, \'ANY_OF\': <class \'gluon.validators.ANY_OF\'>, \'Auth\': <class \'gluon.tools.Auth\'>, \'B\': <class \'gluon.html.B\'>, \'BEAUTIFY\': <class \'gluon.html.BEAUTIFY\'>, \'BODY\': <class \'gluon.html.BODY\'>, \'BR\': <class \'gluon.html.BR\'>, \'BUTTON\': <class \'gluon.html.BUTTON\'>, \'CAT\': <class \'gluon.html.CAT\'>, \'CENTER\': <class \'gluon.html.CENTER\'>, ...}, layer=\'/home/prabhsimran/web2py/applications/UIpart/views/default/viewbookings.html\')'
p84
sS'func'
p85
S'restricted'
p86
sa(dp87
g62
S'/home/prabhsimran/web2py/applications/UIpart/views/default/viewbookings.html'
p88
sg64
(dp89
sg70
I173
sg71
(dp90
I164
S"response.write('\\n', escape=False)"
p91
sI165
S'if flag2==1:'
p92
sI166
S"    response.write('\\nNo future bookings\\n', escape=False)"
p93
sI167
S'    pass'
p94
sI168
S"response.write('\\n', escape=False)"
p95
sI169
S'for i in range(len(flight)):'
p96
sI170
S"    response.write('\\n', escape=False)"
p97
sI171
S"    if ((flight[i]['d']-d1)>=datetime.timedelta(0)):"
p98
sI172
S"        response.write('\\n<tr>\\n<td>', escape=False)"
p99
sI173
S'        response.write(flight[i][\'booked_in\'].strftime("%d %b %Y"))'
p100
sI174
S"        response.write('</td>\\n<td>', escape=False)"
p101
sI175
S'        response.write(flight[i][\'d\'].strftime("%d %b %Y"))'
p102
sI176
S"        response.write('</td>\\n    <td>', escape=False)"
p103
sI177
S'        response.write((flight[i][\'arrival\']).strftime("%I:%M %p"))'
p104
sI178
S"        response.write('</td>\\n    <td>', escape=False)"
p105
sI179
S'        response.write(flight[i][\'depart\'].strftime("%I:%M %p"))'
p106
sI180
S"        response.write('</td>\\n<td>', escape=False)"
p107
sI181
S"        response.write(flight[i]['cl'])"
p108
sI182
S"        response.write('</td>\\n<td>', escape=False)"
p109
sI183
S"        response.write(flight[i]['price'])"
p110
ssg83
S'()'
p111
sg85
S'<module>'
p112
sasS'pyver'
p113
S'Python 2.7.4: /usr/bin/python (prefix: /usr)'
p114
sS'session'
p115
g57
(S's\x9e\x0c\x00\x00<div><table><tr><td style="font-weight:bold;vertical-align:top;">auth</td><td style="vertical-align:top;">:</td><td><div><table><tr><td style="font-weight:bold;vertical-align:top;">expiration</td><td style="vertical-align:top;">:</td><td><div>3600</div></td></tr><tr><td style="font-weight:bold;vertical-align:top;">hmac_key</td><td style="vertical-align:top;">:</td><td><div>49463595-5ca7-4597-b049-aee074bdf586</div></td></tr><tr><td style="font-weight:bold;vertical-align:top;">last_visit</td><td style="vertical-align:top;">:</td><td><div>datetime.datetime(2013, 12, 2, 3, 20, 57, 326768)</div></td></tr><tr><td style="font-weight:bold;vertical-align:top;">user</td><td style="vertical-align:top;">:</td><td><div><table><tr><td style="font-weight:bold;vertical-align:top;">City</td><td style="vertical-align:top;">:</td><td><div>Chandigarh</div></td></tr><tr><td style="font-weight:bold;vertical-align:top;">Country</td><td style="vertical-align:top;">:</td><td><div>India</div></td></tr><tr><td style="font-weight:bold;vertical-align:top;">Member_Type</td><td style="vertical-align:top;">:</td><td><div>user</div></td></tr><tr><td style="font-weight:bold;vertical-align:top;">Phone</td><td style="vertical-align:top;">:</td><td><div>1232345435L</div></td></tr><tr><td style="font-weight:bold;vertical-align:top;">Username</td><td style="vertical-align:top;">:</td><td><div>Prab</div></td></tr><tr><td style="font-weight:bold;vertical-align:top;">email</td><td style="vertical-align:top;">:</td><td><div>prab@gmail.com</div></td></tr><tr><td style="font-weight:bold;vertical-align:top;">first_name</td><td style="vertical-align:top;">:</td><td><div>Prabh</div></td></tr><tr><td style="font-weight:bold;vertical-align:top;">id</td><td style="vertical-align:top;">:</td><td><div>12L</div></td></tr><tr><td style="font-weight:bold;vertical-align:top;">last_name</td><td style="vertical-align:top;">:</td><td><div>Baweja</div></td></tr><tr><td style="font-weight:bold;vertical-align:top;">registration_id</td><td style="vertical-align:top;">:</td><td><div></div></td></tr><tr><td style="font-weight:bold;vertical-align:top;">registration_key</td><td style="vertical-align:top;">:</td><td><div></div></td></tr><tr><td style="font-weight:bold;vertical-align:top;">reset_password_key</td><td style="vertical-align:top;">:</td><td><div></div></td></tr></table></div></td></tr><tr><td style="font-weight:bold;vertical-align:top;">user_groups</td><td style="vertical-align:top;">:</td><td><div><table></table></div></td></tr></table></div></td></tr><tr><td style="font-weight:bold;vertical-align:top;">date</td><td style="vertical-align:top;">:</td><td><div>2013-12-18</div></td></tr><tr><td style="font-weight:bold;vertical-align:top;">flash</td><td style="vertical-align:top;">:</td><td><div>None</div></td></tr><tr><td style="font-weight:bold;vertical-align:top;">last_orderby</td><td style="vertical-align:top;">:</td><td><div>None</div></td></tr><tr><td style="font-weight:bold;vertical-align:top;">last_query</td><td style="vertical-align:top;">:</td><td><div>db.rail.id&gt;0</div></td></tr><tr><td style="font-weight:bold;vertical-align:top;">var</td><td style="vertical-align:top;">:</td><td><div>1</div></td></tr></table></div>'
tRp116
sS'etype'
p117
S"<type 'exceptions.AttributeError'>"
p118
sS'date'
p119
S'Mon Dec  2 03:24:20 2013'
p120
sS'response'
p121
g57
(S'sh5\x00\x00<div><table><tr><td style="font-weight:bold;vertical-align:top;">body</td><td style="vertical-align:top;">:</td><td><div>&lt;cStringIO.StringO object at 0x7ff0e01a1a08&gt;</div></td></tr><tr><td style="font-weight:bold;vertical-align:top;">cookies</td><td style="vertical-align:top;">:</td><td><div><table><tr><td style="font-weight:bold;vertical-align:top;">session_id_uipart</td><td style="vertical-align:top;">:</td><td><div>127.0.0.1-f42be818-e2f8-4024-8fed-d86d80eacb8b<table><tr><td style="font-weight:bold;vertical-align:top;">comment</td><td style="vertical-align:top;">:</td><td><div></div></td></tr><tr><td style="font-weight:bold;vertical-align:top;">domain</td><td style="vertical-align:top;">:</td><td><div></div></td></tr><tr><td style="font-weight:bold;vertical-align:top;">expires</td><td style="vertical-align:top;">:</td><td><div></div></td></tr><tr><td style="font-weight:bold;vertical-align:top;">httponly</td><td style="vertical-align:top;">:</td><td><div></div></td></tr><tr><td style="font-weight:bold;vertical-align:top;">max-age</td><td style="vertical-align:top;">:</td><td><div></div></td></tr><tr><td style="font-weight:bold;vertical-align:top;">path</td><td style="vertical-align:top;">:</td><td><div>/</div></td></tr><tr><td style="font-weight:bold;vertical-align:top;">secure</td><td style="vertical-align:top;">:</td><td><div></div></td></tr><tr><td style="font-weight:bold;vertical-align:top;">version</td><td style="vertical-align:top;">:</td><td><div></div></td></tr></table></div></td></tr></table></div></td></tr><tr><td style="font-weight:bold;vertical-align:top;">delimiters</td><td style="vertical-align:top;">:</td><td><div><table><tr><td><div>{{</div></td></tr><tr><td><div>}}</div></td></tr></table></div></td></tr><tr><td style="font-weight:bold;vertical-align:top;">files</td><td style="vertical-align:top;">:</td><td><div><table><tr><td><div>/UIpart/static/js/jquery.js</div></td></tr><tr><td><div>/UIpart/static/css/calendar.css</div></td></tr><tr><td><div>/UIpart/static/js/calendar.js</div></td></tr><tr><td><div>/UIpart/static/js/web2py.js</div></td></tr><tr><td><div>/UIpart/static/css_template/css/bootstrap.css</div></td></tr><tr><td><div>/UIpart/static/css_template/css/responsive.css</div></td></tr><tr><td><div>/UIpart/static/css_template/css/camera.css</div></td></tr><tr><td><div>/UIpart/static/css_template/css/style.css</div></td></tr><tr><td><div>/UIpart/static/css_template/js/jquery.js</div></td></tr><tr><td><div>/UIpart/static/css_template/js/jquery.easing.1.3.js</div></td></tr><tr><td><div>/UIpart/static/css_template/js/camera.js</div></td></tr><tr><td><div>/UIpart/static/css_template/js/jquery.ui.totop.js</div></td></tr></table></div></td></tr><tr><td style="font-weight:bold;vertical-align:top;">flash</td><td style="vertical-align:top;">:</td><td><div></div></td></tr><tr><td style="font-weight:bold;vertical-align:top;">generic_patterns</td><td style="vertical-align:top;">:</td><td><div><table><tr><td><div>*</div></td></tr></table></div></td></tr><tr><td style="font-weight:bold;vertical-align:top;">google_analytics_id</td><td style="vertical-align:top;">:</td><td><div>None</div></td></tr><tr><td style="font-weight:bold;vertical-align:top;">headers</td><td style="vertical-align:top;">:</td><td><div><table><tr><td style="font-weight:bold;vertical-align:top;">X-Powered-By</td><td style="vertical-align:top;">:</td><td><div>web2py</div></td></tr></table></div></td></tr><tr><td style="font-weight:bold;vertical-align:top;">logo</td><td style="vertical-align:top;">:</td><td><div><a class="brand" data-w2p_disable_with="default" href="http://www.web2py.com/"><b>web<span>2</span>py</b>&trade;&nbsp;</a></div></td></tr><tr><td style="font-weight:bold;vertical-align:top;">menu</td><td style="vertical-align:top;">:</td><td><div><table><tr><td><div><table><tr><td><div>Home</div></td></tr><tr><td><div>False</div></td></tr><tr><td><div>/UIpart/default/index</div></td></tr><tr><td><div><table></table></div></td></tr></table></div></td></tr><tr><td><div><table><tr><td><div><span class="highlighted">web2py</span></div></td></tr><tr><td><div>False</div></td></tr><tr><td><div>http://web2py.com</div></td></tr><tr><td><div><table><tr><td><div><table><tr><td><div>My Sites</div></td></tr><tr><td><div>False</div></td></tr><tr><td><div>/admin/default/site</div></td></tr></table></div></td></tr><tr><td><div><table><tr><td><div>This App</div></td></tr><tr><td><div>False</div></td></tr><tr><td><div>/admin/default/design/UIpart</div></td></tr><tr><td><div>[(&lt;lazyT &#x27;Controller&#x27;&gt;, False, &#x27;/admin/default/edit/UIpart/controllers/default.py&#x27;), (&lt;lazyT &#x27;View&#x27;&gt;, False, &#x27;/admin/default/edit/UIpart/views/default/viewbookings.html&#x27;), (&lt;lazyT &#x27;Layout&#x27;&gt;, False, &#x27;/admin/default/edit/UIpart/views/layout.html&#x27;), (&lt;lazyT &#x27;Stylesheet&#x27;&gt;, False, &#x27;/admin/default/edit/UIpart/static/css/web2py.css&#x27;), (&lt;lazyT &#x27;DB Model&#x27;&gt;, False, &#x27;/admin/default/edit/UIpart/models/db.py&#x27;), (&lt;lazyT &#x27;Menu Model&#x27;&gt;, False, &#x27;/admin/default/edit/UIpart/models/menu.py&#x27;), (&lt;lazyT &#x27;Database&#x27;&gt;, False, &#x27;/UIpart/appadmin/index&#x27;), (&lt;lazyT &#x27;Errors&#x27;&gt;, False, &#x27;/admin/default/errors/UIpart&#x27;), (&lt;lazyT &#x27;About&#x27;&gt;, False, &#x27;/admin/default/about/UIpart&#x27;)]</div></td></tr></table></div></td></tr><tr><td><div><table><tr><td><div>web2py.com</div></td></tr><tr><td><div>False</div></td></tr><tr><td><div>http://www.web2py.com</div></td></tr><tr><td><div>[(&lt;lazyT &#x27;Download&#x27;&gt;, False, &#x27;http://www.web2py.com/examples/default/download&#x27;), (&lt;lazyT &#x27;Support&#x27;&gt;, False, &#x27;http://www.web2py.com/examples/default/support&#x27;), (&lt;lazyT &#x27;Demo&#x27;&gt;, False, &#x27;http://web2py.com/demo_admin&#x27;), (&lt;lazyT &#x27;Quick Examples&#x27;&gt;, False, &#x27;http://web2py.com/examples/default/examples&#x27;), (&lt;lazyT &#x27;FAQ&#x27;&gt;, False, &#x27;http://web2py.com/AlterEgo&#x27;), (&lt;lazyT &#x27;Videos&#x27;&gt;, False, &#x27;http://www.web2py.com/examples/default/videos/&#x27;), (&lt;lazyT &#x27;Free Applications&#x27;&gt;, False, &#x27;http://web2py.com/appliances&#x27;), (&lt;lazyT &#x27;Plugins&#x27;&gt;, False, &#x27;http://web2py.com/plugins&#x27;), (&lt;lazyT &#x27;Layouts&#x27;&gt;, False, &#x27;http://web2py.com/layouts&#x27;), (&lt;lazyT &#x27;Recipes&#x27;&gt;, False, &#x27;http://web2pyslices.com/&#x27;), (&lt;lazyT &#x27;Semantic&#x27;&gt;, False, &#x27;http://web2py.com/semantic&#x27;)]</div></td></tr></table></div></td></tr><tr><td><div><table><tr><td><div>Documentation</div></td></tr><tr><td><div>False</div></td></tr><tr><td><div>http://www.web2py.com/book</div></td></tr><tr><td><div>[(&lt;lazyT &#x27;Preface&#x27;&gt;, False, &#x27;http://www.web2py.com/book/default/chapter/00&#x27;), (&lt;lazyT &#x27;Introduction&#x27;&gt;, False, &#x27;http://www.web2py.com/book/default/chapter/01&#x27;), (&lt;lazyT &#x27;Python&#x27;&gt;, False, &#x27;http://www.web2py.com/book/default/chapter/02&#x27;), (&lt;lazyT &#x27;Overview&#x27;&gt;, False, &#x27;http://www.web2py.com/book/default/chapter/03&#x27;), (&lt;lazyT &#x27;The Core&#x27;&gt;, False, &#x27;http://www.web2py.com/book/default/chapter/04&#x27;), (&lt;lazyT &#x27;The Views&#x27;&gt;, False, &#x27;http://www.web2py.com/book/default/chapter/05&#x27;), (&lt;lazyT &#x27;Database&#x27;&gt;, False, &#x27;http://www.web2py.com/book/default/chapter/06&#x27;), (&lt;lazyT &#x27;Forms and Validators&#x27;&gt;, False, &#x27;http://www.web2py.com/book/default/chapter/07&#x27;), (&lt;lazyT &#x27;Email and SMS&#x27;&gt;, False, &#x27;http://www.web2py.com/book/default/chapter/08&#x27;), (&lt;lazyT &#x27;Access Control&#x27;&gt;, False, &#x27;http://www.web2py.com/book/default/chapter/09&#x27;), (&lt;lazyT &#x27;Services&#x27;&gt;, False, &#x27;http://www.web2py.com/book/default/chapter/10&#x27;), (&lt;lazyT &#x27;Ajax Recipes&#x27;&gt;, False, &#x27;http://www.web2py.com/book/default/chapter/11&#x27;), (&lt;lazyT &#x27;Components and Plugins&#x27;&gt;, False, &#x27;http://www.web2py.com/book/default/chapter/12&#x27;), (&lt;lazyT &#x27;Deployment Recipes&#x27;&gt;, False, &#x27;http://www.web2py.com/book/default/chapter/13&#x27;), (&lt;lazyT &#x27;Other Recipes&#x27;&gt;, False, &#x27;http://www.web2py.com/book/default/chapter/14&#x27;), (&lt;lazyT &#x27;Buy this book&#x27;&gt;, False, &#x27;http://stores.lulu.com/web2py&#x27;)]</div></td></tr></table></div></td></tr><tr><td><div><table><tr><td><div>Community</div></td></tr><tr><td><div>False</div></td></tr><tr><td><div>None</div></td></tr><tr><td><div>[(&lt;lazyT &#x27;Groups&#x27;&gt;, False, &#x27;http://www.web2py.com/examples/default/usergroups&#x27;), (&lt;lazyT &#x27;Twitter&#x27;&gt;, False, &#x27;http://twitter.com/web2py&#x27;), (&lt;lazyT &#x27;Live Chat&#x27;&gt;, False, &#x27;http://webchat.freenode.net/?channels=web2py&#x27;)]</div></td></tr></table></div></td></tr><tr><td><div><table><tr><td><div>Plugins</div></td></tr><tr><td><div>False</div></td></tr><tr><td><div>None</div></td></tr><tr><td><div>[(&#x27;plugin_wiki&#x27;, False, &#x27;http://web2py.com/examples/default/download&#x27;), (&lt;lazyT &#x27;Other Plugins&#x27;&gt;, False, &#x27;http://web2py.com/plugins&#x27;), (&lt;lazyT &#x27;Layout Plugins&#x27;&gt;, False, &#x27;http://web2py.com/layouts&#x27;)]</div></td></tr></table></div></td></tr></table></div></td></tr></table></div></td></tr></table></div></td></tr><tr><td style="font-weight:bold;vertical-align:top;">meta</td><td style="vertical-align:top;">:</td><td><div><table><tr><td style="font-weight:bold;vertical-align:top;">author</td><td style="vertical-align:top;">:</td><td><div>Your Name &lt;you@example.com&gt;</div></td></tr><tr><td style="font-weight:bold;vertical-align:top;">description</td><td style="vertical-align:top;">:</td><td><div>a cool new app</div></td></tr><tr><td style="font-weight:bold;vertical-align:top;">generator</td><td style="vertical-align:top;">:</td><td><div>Web2py Web Framework</div></td></tr><tr><td style="font-weight:bold;vertical-align:top;">keywords</td><td style="vertical-align:top;">:</td><td><div>web2py, python, framework</div></td></tr></table></div></td></tr><tr><td style="font-weight:bold;vertical-align:top;">models_to_run</td><td style="vertical-align:top;">:</td><td><div><table><tr><td><div>^\\w+\\.py$</div></td></tr><tr><td><div>^default/\\w+\\.py$</div></td></tr><tr><td><div>^default/viewbookings/\\w+\\.py$</div></td></tr></table></div></td></tr><tr><td style="font-weight:bold;vertical-align:top;">postprocessing</td><td style="vertical-align:top;">:</td><td><div><table></table></div></td></tr><tr><td style="font-weight:bold;vertical-align:top;">session_client</td><td style="vertical-align:top;">:</td><td><div>127.0.0.1</div></td></tr><tr><td style="font-weight:bold;vertical-align:top;">session_cookie_compression_level</td><td style="vertical-align:top;">:</td><td><div>None</div></td></tr><tr><td style="font-weight:bold;vertical-align:top;">session_cookie_expires</td><td style="vertical-align:top;">:</td><td><div>None</div></td></tr><tr><td style="font-weight:bold;vertical-align:top;">session_cookie_key</td><td style="vertical-align:top;">:</td><td><div>None</div></td></tr><tr><td style="font-weight:bold;vertical-align:top;">session_data_name</td><td style="vertical-align:top;">:</td><td><div>session_data_uipart</div></td></tr><tr><td style="font-weight:bold;vertical-align:top;">session_file</td><td style="vertical-align:top;">:</td><td><div>&lt;open file &#x27;/home/prabhsimran/web2py/applications/UIpart/sessions/127.0.0.1-f42be818-e2f8-4024-8fed-d86d80eacb8b&#x27;, mode &#x27;rb+&#x27; at 0x7ff0cc40c9c0&gt;</div></td></tr><tr><td style="font-weight:bold;vertical-align:top;">session_filename</td><td style="vertical-align:top;">:</td><td><div>/home/prabhsimran/web2py/applications/UIpart/sessions/127.0.0.1-f42be818-e2f8-4024-8fed-d86d80eacb8b</div></td></tr><tr><td style="font-weight:bold;vertical-align:top;">session_hash</td><td style="vertical-align:top;">:</td><td><div>9e4487992abefa25f55f41fa3b8d9001</div></td></tr><tr><td style="font-weight:bold;vertical-align:top;">session_id</td><td style="vertical-align:top;">:</td><td><div>127.0.0.1-f42be818-e2f8-4024-8fed-d86d80eacb8b</div></td></tr><tr><td style="font-weight:bold;vertical-align:top;">session_id_name</td><td style="vertical-align:top;">:</td><td><div>session_id_uipart</div></td></tr><tr><td style="font-weight:bold;vertical-align:top;">session_locked</td><td style="vertical-align:top;">:</td><td><div>True</div></td></tr><tr><td style="font-weight:bold;vertical-align:top;">session_masterapp</td><td style="vertical-align:top;">:</td><td><div>UIpart</div></td></tr><tr><td style="font-weight:bold;vertical-align:top;">session_new</td><td style="vertical-align:top;">:</td><td><div>False</div></td></tr><tr><td style="font-weight:bold;vertical-align:top;">session_storage_type</td><td style="vertical-align:top;">:</td><td><div>file</div></td></tr><tr><td style="font-weight:bold;vertical-align:top;">status</td><td style="vertical-align:top;">:</td><td><div>200</div></td></tr><tr><td style="font-weight:bold;vertical-align:top;">subtitle</td><td style="vertical-align:top;">:</td><td><div>customize me!</div></td></tr><tr><td style="font-weight:bold;vertical-align:top;">title</td><td style="vertical-align:top;">:</td><td><div>Uipart</div></td></tr><tr><td style="font-weight:bold;vertical-align:top;">view</td><td style="vertical-align:top;">:</td><td><div>default/viewbookings.html</div></td></tr></table></div>'
tRp122
sS'locals'
p123
(dp124
S'Service'
p125
S"<class 'gluon.tools.Service'>"
p126
sS'IFRAME'
p127
S"<class 'gluon.html.IFRAME'>"
p128
sS'OBJECT'
p129
S"<class 'gluon.html.OBJECT'>"
p130
sS'SQLDB'
p131
S"<class 'gluon.dal.DAL'>"
p132
sg115
S"<Storage {'last_query': 'db.rail.id>0', '_formke...34539', '6f5ae541-ef60-4fc1-8d4d-0188560e7bb8']}>"
p133
sS'LINK'
p134
S"<class 'gluon.html.LINK'>"
p135
sS'BR'
p136
S"<class 'gluon.html.BR'>"
p137
sS'local_import'
p138
S'<function <lambda>>'
p139
sS'OPTGROUP'
p140
S"<class 'gluon.html.OPTGROUP'>"
p141
sS'__package__'
p142
S'None'
p143
sS'd1'
p144
S'datetime.date(2013, 12, 2)'
p145
sS'PRE'
p146
S"<class 'gluon.html.PRE'>"
p147
sS'IS_INT_IN_RANGE'
p148
S"<class 'gluon.validators.IS_INT_IN_RANGE'>"
p149
sS'IS_LOWER'
p150
S"<class 'gluon.validators.IS_LOWER'>"
p151
sS'IS_STRONG'
p152
S"<class 'gluon.validators.IS_STRONG'>"
p153
sS'cache'
p154
S'<gluon.cache.Cache object>'
p155
sS'IS_IN_DB'
p156
S"<class 'gluon.validators.IS_IN_DB'>"
p157
sS'TAG'
p158
S'<gluon.html.__TAG__ object>'
p159
sS'SQLField'
p160
S"<class 'gluon.dal.Field'>"
p161
sS'mail'
p162
S'<gluon.tools.Mail object>'
p163
sS'BODY'
p164
S"<class 'gluon.html.BODY'>"
p165
sS'IS_DATE_IN_RANGE'
p166
S"<class 'gluon.validators.IS_DATE_IN_RANGE'>"
p167
sS'TH'
p168
S"<class 'gluon.html.TH'>"
p169
sS'URL'
p170
S'<function URL>'
p171
sS'__file__'
p172
S"'/home/prabhsimran/web2py/applications/UIpart/views/default/viewbookings.html'"
p173
sS'db'
p174
S'<DAL uri="sqlite://storage.sqlite">'
p175
sS'auth'
p176
S'<gluon.tools.Auth object>'
p177
sS'P'
S"<class 'gluon.html.P'>"
p178
sS'TFOOT'
p179
S"<class 'gluon.html.TFOOT'>"
p180
sS'rec'
p181
S'<Rows (0)>'
p182
sS'XHTML'
p183
S"<class 'gluon.html.XHTML'>"
p184
sS'datetime'
p185
S"<module 'datetime' from '/usr/lib/python2.7/lib-dynload/datetime.x86_64-linux-gnu.so'>"
p186
sS'ON'
p187
S'True'
p188
sS'OL'
p189
S"<class 'gluon.html.OL'>"
p190
sS'TEXTAREA'
p191
S"<class 'gluon.html.TEXTAREA'>"
p192
sS'MENU'
p193
S"<class 'gluon.html.MENU'>"
p194
sS'IS_IMAGE'
p195
S"<class 'gluon.validators.IS_IMAGE'>"
p196
sS'EM'
p197
S"<class 'gluon.html.EM'>"
p198
sS'CODE'
p199
S"<class 'gluon.html.CODE'>"
p200
sS'HTTP'
p201
S"<class 'gluon.http.HTTP'>"
p202
sS'HR'
p203
S"<class 'gluon.html.HR'>"
p204
sS'IS_DATETIME'
p205
S"<class 'gluon.validators.IS_DATETIME'>"
p206
sS'STYLE'
p207
S"<class 'gluon.html.STYLE'>"
p208
sS'LABEL'
p209
S"<class 'gluon.html.LABEL'>"
p210
sS'CLEANUP'
p211
S"<class 'gluon.validators.CLEANUP'>"
p212
sS'plugins'
p213
S'<gluon.tools.PluginManager object>'
p214
sS'SELECT'
p215
S"<class 'gluon.html.SELECT'>"
p216
sS'use_janrain'
p217
S'<function use_janrain>'
p218
sS'CENTER'
p219
S"<class 'gluon.html.CENTER'>"
p220
sS'prettydate'
p221
S'<function prettydate>'
p222
sS'Crud'
p223
S"<class 'gluon.tools.Crud'>"
p224
sS'Auth'
p225
S"<class 'gluon.tools.Auth'>"
p226
sS'DEVELOPMENT_MENU'
p227
g188
sS'__builtins__'
p228
S"{'ArithmeticError': <type 'exceptions.ArithmeticError'>, 'AssertionError': <type 'exceptions.AssertionError'>, 'AttributeError': <type 'exceptions.AttributeError'>, 'BaseException': <type 'exceptions.BaseException'>, 'BufferError': <type 'exceptions.BufferError'>, 'BytesWarning': <type 'exceptions.BytesWarning'>, 'DeprecationWarning': <type 'exceptions.DeprecationWarning'>, 'EOFError': <type 'exceptions.EOFError'>, 'Ellipsis': Ellipsis, 'EnvironmentError': <type 'exceptions.EnvironmentError'>, ...}"
p229
sS'HTML'
p230
S"<class 'gluon.html.HTML'>"
p231
sS'SQLFORM'
p232
S"<class 'gluon.sqlhtml.SQLFORM'>"
p233
sS'LOAD'
p234
S'<function LOAD>'
p235
sS'redirect'
p236
S'<function redirect>'
p237
sS'FIELDSET'
p238
S"<class 'gluon.html.FIELDSET'>"
p239
sS'IS_EQUAL_TO'
p240
S"<class 'gluon.validators.IS_EQUAL_TO'>"
p241
sS'embed64'
p242
S'<function embed64>'
p243
sS'IS_LIST_OF'
p244
S"<class 'gluon.validators.IS_LIST_OF'>"
p245
sS'INPUT'
p246
S"<class 'gluon.html.INPUT'>"
p247
sS'EMBED'
p248
S"<class 'gluon.html.EMBED'>"
p249
sS'_'
S'<function _>'
p250
sS'H2'
p251
S"<class 'gluon.html.H2'>"
p252
sS'H3'
p253
S"<class 'gluon.html.H3'>"
p254
sS'BUTTON'
p255
S"<class 'gluon.html.BUTTON'>"
p256
sS'H1'
p257
S"<class 'gluon.html.H1'>"
p258
sS'H6'
p259
S"<class 'gluon.html.H6'>"
p260
sS'H4'
p261
S"<class 'gluon.html.H4'>"
p262
sS'H5'
p263
S"<class 'gluon.html.H5'>"
p264
sS'UL'
p265
S"<class 'gluon.html.UL'>"
p266
sS'IS_UPPER'
p267
S"<class 'gluon.validators.IS_UPPER'>"
p268
sS'xmlescape'
p269
S'<function xmlescape>'
p270
sS'IS_TIME'
p271
S"<class 'gluon.validators.IS_TIME'>"
p272
sS'OPTION'
p273
S"<class 'gluon.html.OPTION'>"
p274
sS'TITLE'
p275
S"<class 'gluon.html.TITLE'>"
p276
sS'CRYPT'
p277
S"<class 'gluon.validators.CRYPT'>"
p278
sS'IS_EMPTY_OR'
p279
S"<class 'gluon.validators.IS_EMPTY_OR'>"
p280
sS'MARKMIN'
p281
S"<class 'gluon.html.MARKMIN'>"
p282
sS'__name__'
p283
S"'__restricted__'"
p284
sS'STRONG'
p285
S"<class 'gluon.html.STRONG'>"
p286
sS'COL'
p287
S"<class 'gluon.html.COL'>"
p288
sS'service'
p289
S'<gluon.tools.Service object>'
p290
sS'SCRIPT'
p291
S"<class 'gluon.html.SCRIPT'>"
p292
sS'TABLE'
p293
S"<class 'gluon.html.TABLE'>"
p294
sS'IS_IPV4'
p295
S"<class 'gluon.validators.IS_IPV4'>"
p296
sS'IS_LENGTH'
p297
S"<class 'gluon.validators.IS_LENGTH'>"
p298
sS'IS_IPV6'
p299
S"<class 'gluon.validators.IS_IPV6'>"
p300
sS'XML'
p301
S"<class 'gluon.html.XML'>"
p302
sS'B'
S"<class 'gluon.html.B'>"
p303
sS'flight'
p304
S'<Rows (1)>'
p305
sS'IMG'
p306
S"<class 'gluon.html.IMG'>"
p307
sS'SQLTABLE'
p308
S"<class 'gluon.sqlhtml.SQLTABLE'>"
p309
sS'IS_MATCH'
p310
S"<class 'gluon.validators.IS_MATCH'>"
p311
sS'IS_ALPHANUMERIC'
p312
S"<class 'gluon.validators.IS_ALPHANUMERIC'>"
p313
sS'c2'
p314
S'1'
sS'c1'
p315
S'0'
sS'SPAN'
p316
S"<class 'gluon.html.SPAN'>"
p317
sS'IS_JSON'
p318
S"<class 'gluon.validators.IS_JSON'>"
p319
sS'IS_IPADDRESS'
p320
S"<class 'gluon.validators.IS_IPADDRESS'>"
p321
sS'IS_SLUG'
p322
S"<class 'gluon.validators.IS_SLUG'>"
p323
sS'BEAUTIFY'
p324
S"<class 'gluon.html.BEAUTIFY'>"
p325
sS'META'
p326
S"<class 'gluon.html.META'>"
p327
sS'f1'
p328
S'1'
sS'f2'
p329
S'1'
sS'IS_DATE'
p330
S"<class 'gluon.validators.IS_DATE'>"
p331
sS'IS_EMAIL'
p332
S"<class 'gluon.validators.IS_EMAIL'>"
p333
sS'IS_NOT_EMPTY'
p334
S"<class 'gluon.validators.IS_NOT_EMPTY'>"
p335
sS'IS_FLOAT_IN_RANGE'
p336
S"<class 'gluon.validators.IS_FLOAT_IN_RANGE'>"
p337
sS'TBODY'
p338
S"<class 'gluon.html.TBODY'>"
p339
sS'CAT'
p340
S"<class 'gluon.html.CAT'>"
p341
sS'Field'
p342
S"<class 'gluon.dal.Field'>"
p343
sS'IS_LIST_OF_EMAILS'
p344
S"<class 'gluon.validators.IS_LIST_OF_EMAILS'>"
p345
sS'DIV'
p346
S"<class 'gluon.html.DIV'>"
p347
sS'LEGEND'
p348
S"<class 'gluon.html.LEGEND'>"
p349
sS'COLGROUP'
p350
S"<class 'gluon.html.COLGROUP'>"
p351
sS'DAL'
p352
S"<class 'gluon.dal.DAL'>"
p353
sS'TT'
p354
S"<class 'gluon.html.TT'>"
p355
sS'TR'
p356
S"<class 'gluon.html.TR'>"
p357
sS'LI'
p358
S"<class 'gluon.html.LI'>"
p359
sS'flag2'
p360
S'0'
sS'flag1'
p361
S'1'
sS'TD'
p362
S"<class 'gluon.html.TD'>"
p363
sS'PluginManager'
p364
S"<class 'gluon.tools.PluginManager'>"
p365
sS'IS_URL'
p366
S"<class 'gluon.validators.IS_URL'>"
p367
sS'A'
S"<class 'gluon.html.A'>"
p368
sS'HEAD'
p369
S"<class 'gluon.html.HEAD'>"
p370
sS'IS_DATETIME_IN_RANGE'
p371
S"<class 'gluon.validators.IS_DATETIME_IN_RANGE'>"
p372
sS'FORM'
p373
S"<class 'gluon.html.FORM'>"
p374
sS'I'
S"<class 'gluon.html.I'>"
p375
sS'crud'
p376
S'<gluon.tools.Crud object>'
p377
sS'IS_NOT_IN_DB'
p378
S"<class 'gluon.validators.IS_NOT_IN_DB'>"
p379
sS'ctr2'
p380
S'0'
sS'ctr1'
p381
S'0'
sg121
S"<Storage {'body': <cStringIO.StringO object at 0...0e437d7d0>, 'view': 'default/viewbookings.html'}>"
p382
sS'THEAD'
p383
S"<class 'gluon.html.THEAD'>"
p384
sS'ANY_OF'
p385
S"<class 'gluon.validators.ANY_OF'>"
p386
sS'IS_NULL_OR'
p387
S"<class 'gluon.validators.IS_EMPTY_OR'>"
p388
sS'i'
S'0'
sg56
S"<Storage {'_vars': None, 'function': 'viewbookin...'/home/prabhsimran/web2py/applications/UIpart/'}>"
p389
sS'IS_EXPR'
p390
S"<class 'gluon.validators.IS_EXPR'>"
p391
sS'T'
S'<gluon.languages.translator object>'
p392
sS'IS_IN_SET'
p393
S"<class 'gluon.validators.IS_IN_SET'>"
p394
sS'IS_UPLOAD_FILENAME'
p395
S"<class 'gluon.validators.IS_UPLOAD_FILENAME'>"
p396
sS'IS_DECIMAL_IN_RANGE'
p397
S"<class 'gluon.validators.IS_DECIMAL_IN_RANGE'>"
p398
sssS'traceback'
p399
S'Traceback (most recent call last):\n  File "/home/prabhsimran/web2py/gluon/restricted.py", line 217, in restricted\n    exec ccode in environment\n  File "/home/prabhsimran/web2py/applications/UIpart/views/default/viewbookings.html", line 173, in <module>\nAttributeError: \'str\' object has no attribute \'strftime\'\n'
p400
s.