(dp1
S'output'
p2
S"<type 'exceptions.TypeError'> string indices must be integers"
p3
sS'layer'
p4
S'/home/ayush/Desktop/web2py/applications/UIpart/views/default/hotel_desc.html'
p5
sS'code'
p6
S'response.write(\'<!DOCTYPE html>\\n<html lang="en">\\n<head>\\n    <title>Home</title>\\n    <meta charset="utf-8">\\n\\t<meta name="viewport" content="width=device-width, initial-scale=1.0">\\n    <meta name="description" content="Your description">\\n    <meta name="keywords" content="Your keywords">\\n    <meta name="author" content="Your name">\\n    <link rel="icon" href="\', escape=False)\nresponse.write(URL(\'static\',\'css_template/img/favicon.ico\'))\nresponse.write(\'" type="image/x-icon">\\n    <link rel="shortcut icon" href="\', escape=False)\nresponse.write(URL(\'static\',\'css_template/img/favicon.ico\'))\nresponse.write(\'" type="image/x-icon" />\\n    <link href=\\\'http://fonts.googleapis.com/css?family=Open+Sans:400,600,700\\\' rel=\\\'stylesheet\\\' type=\\\'text/css\\\'>\\n\\t<script type="text/javascript" src="\', escape=False)\nresponse.write(URL(\'static\',\'js/jquery.js\'))\nresponse.write(\'"></script>\\n    <script type="text/javascript" src="\', escape=False)\nresponse.write(URL(\'static\',\'js/jquery.easing.1.3.js\'))\nresponse.write(\'"></script>\\n\\t<script type="text/javascript" src="\', escape=False)\nresponse.write(URL(\'static\',\'js/camera.js\'))\nresponse.write(\'"></script>\\n    <script src="\', escape=False)\nresponse.write(URL(\'static\',\'css_template/js/jquery.ui.totop.js\'))\nresponse.write(\'" type="text/javascript"></script>\\n\\t<script>\\n      $(document).ready(function(){   \\n              jQuery(\\\'.camera_wrap\\\').camera();\\n        });    \\n\\t</script>\\t\\t\\n\\t<!--[if lt IE 8]>\\n  \\t\\t<div style=\\\'text-align:center\\\'><a href="http://www.microsoft.com/windows/internet-explorer/default.aspx?ocid=ie6_countdown_bannercode"><img src="http://www.theie6countdown.com/img/upgrade.jpg"border="0"alt=""/></a></div>  \\n \\t<![endif]-->\\n  \\n  <!--[if (gt IE 9)|!(IE)]><!-->\\n  <script type="text/javascript" src="\', escape=False)\nresponse.write(URL(\'static\',\'js/jquery.mobile.customized.min.js\'))\nresponse.write(\'"></script>\\n  <!--<![endif]-->\\n  \\t<!--[if lt IE 9]>\\n    <link href=\\\'http://fonts.googleapis.com/css?family=Open+Sans:400\\\' rel=\\\'stylesheet\\\' type=\\\'text/css\\\'>\\n    <link href=\\\'http://fonts.googleapis.com/css?family=Open+Sans:600\\\' rel=\\\'stylesheet\\\' type=\\\'text/css\\\'>\\n    <link href=\\\'http://fonts.googleapis.com/css?family=Open+Sans:700\\\' rel=\\\'stylesheet\\\' type=\\\'text/css\\\'>\\n    <script src="http://html5shim.googlecode.com/svn/trunk/html5.js"></script>\\n    <link rel="stylesheet" href="css/docs.css" type="text/css" media="screen">\\n    <link rel="stylesheet" href="css/ie.css" type="text/css" media="screen">\\n  <![endif]-->\\n\', escape=False)\nresponse.files.append(URL(\'static\',\'css_template/css/bootstrap.css\'))\nresponse.files.append(URL(\'static\',\'css_template/css/responsive.css\'))\nresponse.files.append(URL(\'static\',\'css_template/css/camera.css\'))\nresponse.files.append(URL(\'static\',\'css_template/css/style.css\'))\nresponse.files.append(URL(\'static\',\'css_template/js/jquery.js\'))\nresponse.files.append(URL(\'static\',\'css_template/js/jquery.easing.1.3.js\'))\nresponse.files.append(URL(\'static\',\'css_template/js/camera.js\'))\nresponse.files.append(URL(\'static\',\'css_template/js/jquery.ui.totop.js\'))\nresponse.write(\'\\n\\n\', escape=False)\nresponse.write(\'<script type="text/javascript"><!--\\n    // These variables are used by the web2py_ajax_init function in web2py_ajax.js (which is loaded below).\\n    var w2p_ajax_confirm_message = "\', escape=False)\nresponse.write(T(\'Are you sure you want to delete this object?\'))\nresponse.write(\'";\\n    var w2p_ajax_date_format = "\', escape=False)\nresponse.write(T(\'%Y-%m-%d\'))\nresponse.write(\'";\\n    var w2p_ajax_datetime_format = "\', escape=False)\nresponse.write(T(\'%Y-%m-%d %H:%M:%S\'))\nresponse.write(\'";\\n    var ajax_error_500 = \\\'\', escape=False)\nresponse.write(XML(T(\'An error occured, please %s the page\') % A(T(\'reload\'), _href=URL(args=request.args, vars=request.get_vars))))\nresponse.write("\'\\n    //--></script>\\n", escape=False)\nresponse.files.insert(0,URL(\'static\',\'js/jquery.js\'))\nresponse.files.insert(1,URL(\'static\',\'css/calendar.css\'))\nresponse.files.insert(2,URL(\'static\',\'js/calendar.js\'))\nresponse.files.insert(3,URL(\'static\',\'js/web2py.js\'))\nresponse.include_meta()\nresponse.include_files()\nresponse.write(\'\\n\', escape=False)\nresponse.write(\'\\n</head>\\n\\n<body>\\n\\n                                <div class="flash">\', escape=False)\nresponse.write(response.flash or \'\')\nresponse.write(\'</div>\\n<!--==============================header=================================-->\\n<header class="p0">\\n    <div class="container">\\n    \\t<div class="row">\\n        \\t<div class="span12">\\n            \\t\\n            \\t<div class="header-block clearfix">\\n                    <div class="clearfix header-block-pad">\\n                        <h1 class="brand"><a href="\', escape=False)\nresponse.write(URL(\'static\',\'css_template/index.html\'))\nresponse.write(\'"><!--<img src="img/logo.png" alt="">--><h3 style="color:lightblue">Traveller\\\'s Paradise</h3></a><span>Cuz the world is just so ... AWESOME!!</span></h1><span style="float:right;"><table class="headprofile" cellspacing="10px">\\n                        <tr>\\n                            <td><a href="#">User Profile</a></td>\\n                            <td><a href="#">Previous Bookings</a></td>\\n                            <td><a href="#">Logout</a></td>\\n                        </tr>\\n                        </table>\\n                        <!--<span class="contacts">Call Us Toll Free:  <span>+1 234 567 89 90</span><br>E-mail: <a href="#">company@demolink.org</a></span>-->\\n                    </div>\\n                    <div class="navbar navbar_ clearfix">\\n                        <div class="navbar-inner navbar-inner_">\\n                            <div class="container">\\n                                <a class="btn btn-navbar" data-toggle="collapse" data-target=".nav-collapse_">MENU</a>                                                   \\n                                <!--Menu-BAR -->\\n                                <div class="nav-collapse nav-collapse_ collapse">\\n                                \\n                                    <ul class="nav sf-menu">\\n                                      \', escape=False)\nif session.var==1:\n    response.write(\'\\n                                        <li class="active li-first"><a href="\', escape=False)\n    response.write(URL(\'index\'))\n    response.write(\'">Flights</a></li>\\n                                        <li><a href="index-1.html">Trains</a></li>\\n                                          <li><a href="\', escape=False)\n    response.write(URL(\'bus_booking\'))\n    response.write(\'">Buses</a></li>\\n                                          <li><a href="\', escape=False)\n    response.write(URL(\'hotel_search\'))\n    response.write(\'">Hotels</a></li>\\n                                        <li><a href="#">Package Deals</a></li>\\n                                        \', escape=False)\nelif session.var==3:\n    response.write(\'\\n                                        <li ><a href="\', escape=False)\n    response.write(URL(\'index\'))\n    response.write(\'">Flights</a></li>\\n                                        <li><a href="">Trains</a></li>\\n                                          <li class="active li-first"><a href="\', escape=False)\n    response.write(URL(\'bus_booking\'))\n    response.write(\'">Buses</a></li>\\n                                          <li ><a href="\', escape=False)\n    response.write(URL(\'hotel_search\'))\n    response.write(\'">Hotels</a></li>\\n                                        <li><a href="#">Package Deals</a></li>\\n                                        \', escape=False)\nelif session.var==4:\n    response.write(\'\\n                                        <li ><a href="\', escape=False)\n    response.write(URL(\'index\'))\n    response.write(\'">Flights</a></li>\\n                                        <li><a href="index-1.html">Trains</a></li>\\n                                          <li><a href="\', escape=False)\n    response.write(URL(\'bus_booking\'))\n    response.write(\'">Buses</a></li>\\n                                          <li class="active li-first"><a href="\', escape=False)\n    response.write(URL(\'hotel_search\'))\n    response.write(\'">Hotels</a></li>\\n                                        <li><a href="#">Package Deals</a></li>\\n                                        \', escape=False)\nelse:\n    response.write(\'\\n                                        <li class="active li-first"><a href="\', escape=False)\n    response.write(URL(\'index\'))\n    response.write(\'">Flights</a></li>\\n                                        <li><a href="index-1.html">Trains</a></li>\\n                                          <li><a href="\', escape=False)\n    response.write(URL(\'bus_booking\'))\n    response.write(\'">Buses</a></li>\\n                                          <li><a href="\', escape=False)\n    response.write(URL(\'hotel_search\'))\n    response.write(\'">Hotels</a></li>\\n                                        <li><a href="#">Package Deals</a></li>\\n                                        \', escape=False)\n    pass\nresponse.write(\'\\n                                        </ul>\\n                                      \\n                                </div>\\n                                <!--SOCIAL LINKS ICONS SIDESECTION By Jigar-->\\n                                <!--<ul class="social-icons">\\n                                    <li><a href="#"><img src="img/icon-1.png" alt=""></a></li>\\n                                    <li><a href="#"><img src="img/icon-2.png" alt=""></a></li>\\n                                    <li><a href="#"><img src="img/icon-3.png" alt=""></a></li>\\n                                    <li><a href="#"><img src="img/icon-4.png" alt=""></a></li>\\n                                </ul>-->\\n                            </div>\\n                        </div>\\n                     </div>   \\n                </div>\\n            </div>\\n         </div>   \\n    </div>\\n    <div class="slider">\\n    <div class="camera_wrap">\\n        <div data-src="\', escape=False)\nresponse.write(URL(\'static\',\'images/1st.jpg\'))\nresponse.write(\'"></div>\\n        <div data-src="\', escape=False)\nresponse.write(URL(\'static\',\'images/2nd.jpg\'))\nresponse.write(\'"></div>\\n        <div data-src="\', escape=False)\nresponse.write(URL(\'static\',\'css_template/img/slide3.jpg\'))\nresponse.write(\'"></div>\\n        <div data-src="\', escape=False)\nresponse.write(URL(\'static\',\'css_template/img/slide4.jpg\'))\nresponse.write(\'"></div>\\n        <div data-src="\', escape=False)\nresponse.write(URL(\'static\',\'css_template/img/slide5.jpg\'))\nresponse.write(\'"></div>\\n        <div data-src="\', escape=False)\nresponse.write(URL(\'static\',\'css_template/img/slide6.jpg\'))\nresponse.write(\'"></div>\\n        <div data-src="\', escape=False)\nresponse.write(URL(\'static\',\'css_template/img/slide7.jpg\'))\nresponse.write(\'"></div>\\n    </div>\\n</div>\\n</header>\\n\\n<section id="content" class="main-content">\\n\', escape=False)\nresponse.write(\'\\n<br/>\\n\\n<div style="margin:auto;width:70%;"><div class="panel-group" id="accordion">\\n<div class="panel panel-default">\\n<div class="panel-heading">\\n<h4 class="panel-title">\\n<a data-toggle="collapse" data-parent="#accordion" href="#collapseOne">\\nCheck-in Instructions\\n</a>\\n</h4>\\n</div>\\n<div id="collapseOne" class="panel-collapse collapse out">\\n<div class="panel-body">\\n<p id="print">\', escape=False)\nresponse.write(hotel[\'checkInInstructions\'])\nresponse.write(\'</p>\\n</div>\\n</div>\\n</div>\\n</div>\\n<br/><br/>\\n<h3>Choose a Hotel room type:</h3>\\n<br/>\\n<p id="desc">\', escape=False)\nresponse.write(desc)\nresponse.write(\'</p>\\n\', escape=False)\ncount=0\nresponse.write(\'\\n\', escape=False)\nfor i in li:\n    response.write(\'\\n<b>\', escape=False)\n    response.write(i[\'roomTypeDescription\'])\n    response.write(\'</b><br/>\\nMaximum room occupancy : \', escape=False)\n    response.write(i[\'rateOccupancyPerRoom\'])\n    response.write(\'<br/>\\n\\n<div class="panel-group" id="accordion">\\n<div class="panel panel-default">\\n<div class="panel-heading">\\n<a data-toggle="collapse" data-parent="#accordion" href="#collapseOne\', escape=False)\n    response.write(count)\n    response.write(\'">\\nCancellation Policy\\n</a>\\n</div>\\n<div id="collapseOne\', escape=False)\n    response.write(count)\n    response.write(\'" class="panel-collapse collapse out">\\n<div class="panel-body">\\n<p id="print">\', escape=False)\n    response.write(i[\'cancellationPolicy\'])\n    response.write(\'</p>\\n</div>\\n</div>\\n</div>\\n</div>\\n\', escape=False)\n    count+=1\n    response.write(\'\\n\', escape=False)\n    try:\n        response.write(\'\\n\', escape=False)\n        response.write(i[\'promoDescription\'])\n        response.write(\'\\n\', escape=False)\n    except:\n        response.write(\'\\n\', escape=False)\n        pass\n    response.write(\'\\nNightly rate per room : \', escape=False)\n    response.write(i[\'RateInfo\'][\'ChargeableRateInfo\'][\'@averageBaseRate\'])\n    response.write(\'<br/>\\nTotal : \', escape=False)\n    response.write(i[\'RateInfo\'][\'ChargeableRateInfo\'][\'@total\'])\n    response.write(\'<br/>\\n\', escape=False)\n    try:\n        response.write(\'\\n<img src="\', escape=False)\n        response.write(i[\'RoomImages\'][\'RoomImage\'][\'url\'])\n        response.write(\'" alt="Room Image Not Available"><br/><br/>\\n\', escape=False)\n    except:\n        response.write(\'\\n<img src="http://www.panhandletickets.com/images/not_available.jpg" style="width:200px;height:150px;margin:5px 5px 5px 0px;border:none;">\\n\', escape=False)\n        pass\n    response.write(\'\\n<a href="\', escape=False)\n    response.write(URL(r=request,f=\'hotel_confirm\',args=(request.args(0),request.args(1),request.args(2),request.args(3),i[\'roomTypeCode\'])))\n    response.write(\'"><button class="btn btn-info">Book</button></a><br/><br/>\\n<hr/>\\n\', escape=False)\n    pass\nresponse.write(\'\\n</div>\\n<!--\\n<div class="panel-group" id="accordion">\\n<div class="panel panel-default">\\n<div class="panel-heading">\\n<h4 class="panel-title">\\n<a data-toggle="collapse" data-parent="#accordion" href="#collapseFour">\\nCheck-in Instructions\\n</a>\\n</h4>\\n</div>\\n<div id="collapseFour" class="panel-collapse collapse in">\\n<div class="panel-body">\\n<p id="print">\', escape=False)\nresponse.write(hotel[\'checkInInstructions\'])\nresponse.write(\'</p>\\neleleskjasdaka\\n</div>\\n</div>\\n</div>-->\\n</div>\\n\\n<script>\\n$a=$("#print").text();\\n$("#print").html($a);\\nalert($a);\\n$a=$("#desc").text();\\n$("#desc").html($a);\\n$a=$("#desc").text();\\n$("#desc").html($a);\\n$(".collapse").collapse();\\n\\n</script>\\n\\n\', escape=False)\nresponse.write(\'\\n<!--  <div class="container">\\n    <div class="row">\\n      <div class="span12">        \\n        <ul class="thumbnails">\\n          <li class="span3">\\n            <div class="thumbnail">\\n              <div class="caption">\\n              \\t<img src="img/img-1.png" alt="">\\n                <h5>Most</h5>\\n                <h3>popular</h3>\\n              </div>  \\n              <div class="thumbnail-pad">\\n                  <p>Praesent vestibulum molestie lacus. Aenean noy hendrerit mauris. Phasellus porta. Fusce suscipit varius mi. </p>\\n                  <a href="#" class="btn btn_">more info</a>\\n              </div>\\n            </div>\\n          </li>\\n          <li class="span3">\\n            <div class="thumbnail">\\n              <div class="caption">\\n              \\t<img src="img/img-2.png" alt="">\\n                <h5>Beauty</h5>\\n                <h3>Gifts</h3>\\n              </div>  \\n              <div class="thumbnail-pad">\\n                  <p>Praesent vestibulum molestie lacus. Aenean my hendrerit mauris. Phasellus porta. Fusce suscipit varius mi. </p>\\n                  <a href="#" class="btn btn_">more info</a>\\n              </div>\\n            </div>\\n          </li>\\n          <li class="span3">\\n            <div class="thumbnail">\\n              <div class="caption">\\n              \\t<img src="img/img-3.png" alt="">\\n                <h5>Attention</h5>\\n                <h3>to Detail</h3>\\n              </div>  \\n              <div class="thumbnail-pad">\\n                  <p>Aenean nonummy hendrerit mauris. Phasellus porta. Fusce suipit varius mi. Cum sociis natoque penatibus et.</p>\\n                  <a href="#" class="btn btn_">more info</a>\\n              </div>\\n            </div>\\n          </li>\\n          <li class="span3">\\n            <div class="thumbnail">\\n              <div class="caption">\\n              \\t<img src="img/img-4.png" alt="">\\n                <h5>Award-Winning</h5>\\n                <h3>Fragrances</h3>\\n              </div>\\n              <div class="thumbnail-pad">  \\n                  <p>Nonummy hendrerit mauris. Phasellus porta. Fusce suscipit varius mi. Cum sociis natoque penatibus et magnis.</p>\\n                  <a href="#" class="btn btn_">more info</a>\\n              </div>\\n            </div>\\n          </li>\\n        </ul>\\n      </div>\\n    </div>\\n    <div class="row">\\n    \\t<div class="span8">\\n        \\t<div class="clearfix cols-1">\\n                <div class="span4 left-0">\\n                    <h4 class="indent-2">Welcome</h4>\\n                    <p class="lead">Praesent vestibulum molestie lacus. Aenean nonummy hendrerit mauris. Phasellus porta. </p>\\n                    <figure class="img-indent"><img src="img/page1-img1.jpg" alt="" class="img-radius"></figure>\\n                    Praesent vestibulum molestie lacus. Aenean nonummy hendrerit mauris. Phasellus porta. Fusce suscipit varius mi. Cum sociis natoque penatibus et magnis dis parturient montes, nascetur ridiculus mus. Nulla dui. Fusce feugiat malesuada odio. Morbi nunc odio, gravida at, cursus nec, luctus a, lorem. \\n                </div>\\n                <div class="span4">\\n                    <h4 class="indent-2">What We Do</h4>\\n                    <p class="lead">Praesent vestibulum molestie lacus. Aenean nonummy hendrerit mauris. Phasellus porta. </p>\\n                    <figure class="img-indent"><img src="img/page1-img2.jpg" alt="" class="img-radius"></figure>\\n                    Praesent vestibulum molestie lacus. Aenean nonummy hendrerit mauris. Phasellus porta. Fusce suscipit varius mi. Cum sociis natoque penatibus et magnis dis parturient montes, nascetur ridiculus mus. Nulla dui. Fusce feugiat malesuada odio. Morbi nunc odio, gravida at, cursus nec, luctus a, lorem. \\n                </div>\\n            </div>\\n            <h4 class="indent-1">our Capabilities:</h4>\\n            <p class="lead">Praesent vestibulum molestie lacus. Aenean nonummy hendrerit mauris. Phasellus porta. Fusce suscipit varius mi. Cum sociis natoque penatibus et magnis dis parturien.</p>\\n            <div class="lists">\\n            \\t<div class="span4 left-0">\\n                    <ul class="list">\\n                        <li><a href="#">Praesent vestibulum molestie lacus aenean</a></li>\\n                        <li><a href="#">nonummy hendrerit mauris</a></li>\\n                        <li><a href="#">Phasellus porta fusce suscipit varius mi</a></li>\\n                        <li><a href="#">Cum sociis natoque penatibus et magnis dis</a></li>\\n                    </ul>\\n                </div>\\n                <div class="span4">\\n                    <ul class="list">\\n                        <li><a href="#">Praesent vestibulum molestie lacus aenean</a></li>\\n                        <li><a href="#">nonummy hendrerit mauris</a></li>\\n                        <li><a href="#">Phasellus porta fusce suscipit varius mi</a></li>\\n                        <li><a href="#">Cum sociis natoque penatibus et magnis dis</a></li>\\n                    </ul>\\n                </div>\\n            </div>\\n            <a href="#" class="link">More Info</a>\\n        </div>    \\n        <div class="span4">\\n        \\t<h4 class="indent-2">Latest News:</h4>\\n            <ul class="list-news">\\n            \\t<li>\\n                \\t<a href="#" class="btn btn_">Apr 21, 2012</a>\\n                    <p class="text-info">Praesent vestibulum molestie lacus. Aenean nonummy hendrerit mauris. Phasellus porta.</p>\\n                    Praesent vestibulum molestie lacus. Aenean nonummy hendrerit mauris. Phasellus porta. Fusce suscipit varius mi. <a href="#" class="underline">>></a>\\n                </li>\\n                <li>\\n                \\t<a href="#" class="btn btn_">Apr 21, 2012</a>\\n                    <p class="text-info">Aenean nonummy hendrerit mauris</p>\\n                    Fusce suscipit varius mi. Cum sociis natoque penatibus et magnis dis parturient montes.  <a href="#" class="underline">>></a>\\n                </li>\\n                <li>\\n                \\t<a href="#" class="btn btn_">Apr 21, 2012</a>\\n                    <p class="text-info">Phasellus porta. Fusce suscipit varius mi. Cum sociis natoque penatibus et magnis dis parturien.</p>\\n                    Fusce suscipit varius mi. Cum sociis natoque penatibus et magnis dis parturient montes.  <a href="#" class="underline">>></a>\\n                </li>\\n            </ul>\\n            <h4 class="indent-1">testimonials:</h4>\\n\\t\\t\\t<p class="p1">Praesent vestibulum molestie lacus. Aenean nonummy hendrerit mauris. Phasellus porta. Fusce suscipit varius mi, nascetur ridiculus mus. Nulla dui. Fusce feugiat malesuada.\\xe2\\x80\\x9d</p>\\n            <span class="clr"><strong>Mark Priston</strong>, <a href="#" class="link-2">demolink.org</a></span>\\n        </div>\\n    </div>        \\n</div>-->\\n  </section>\\n<footer>\\n   <div class="container">\\n    <div class="row">\\n      <div class="span4 float2">\\n        <form id="newsletter" method="post" >\\n            <label>Newsletter</label>\\n            <div class="clearfix">\\n                <input type="text" onFocus="if(this.value ==\\\'Enter e-mail here\\\' ) this.value=\\\'\\\'" onBlur="if(this.value==\\\'\\\') this.value=\\\'Enter e-mail here\\\'" value="Enter e-mail here" >\\n                <a href="#" onClick="document.getElementById(\\\'newsletter\\\').submit()" class="btn btn_">subscribe</a>\\n            </div>\\n        </form>\\n    </div>\\n    <div class="span8 float">\\n      \\t<ul class="footer-menu">\\n            \', escape=False)\nif session.var==4:\n    response.write(\'\\n            <li><a href="\', escape=False)\n    response.write(URL(\'index\'))\n    response.write(\'" >Flights</a>|</li>\\n            <li><a href="index-1.html">Trains</a>|</li>\\n            <li><a href="\', escape=False)\n    response.write(URL(\'bus_booking\'))\n    response.write(\'">Buses</a>|</li>\\n            <li><a href="\', escape=False)\n    response.write(URL(\'hotel_search\'))\n    response.write(\'" class="current">Hotels</a>|</li>\\n            <li><a href="index-4.html">Package Deals</a>|</li>\\n            \', escape=False)\nelif session.var==3:\n    response.write(\'\\n        \\t<li><a href="">Flights</a>|</li>\\n            <li><a href="index-1.html">Trains</a>|</li>\\n            <li><a href="\', escape=False)\n    response.write(URL(\'bus_booking\'))\n    response.write(\'" class="current">Buses</a>|</li>\\n            <li><a href="\', escape=False)\n    response.write(URL(\'hotel_search\'))\n    response.write(\'">Hotels</a>|</li>\\n            <li><a href="index-4.html">Package Deals</a>|</li>\\n            \', escape=False)\nelse:\n    response.write(\'\\n        \\t<li><a href="\', escape=False)\n    response.write(URL(\'index\'))\n    response.write(\'" class="current">Flights</a>|</li>\\n            <li><a href="index-1.html">Trains</a>|</li>\\n            <li><a href="\', escape=False)\n    response.write(URL(\'bus_booking\'))\n    response.write(\'">Buses</a>|</li>\\n            <li><a href="\', escape=False)\n    response.write(URL(\'hotel_search\'))\n    response.write(\'">Hotels</a>|</li>\\n            <li><a href="index-4.html">Package Deals</a>|</li>\\n            \', escape=False)\n    pass\nresponse.write(\'\\n            \\n        </ul>\\n      \\tCopyright &copy;  IIIT Hyderabad SSAD Team-9 <!-- {%FOOTER_LINK} -->\\n\\n<br />\\n        Joint efforts of<br/>\\n        <table>\\n            <tr><td>Ayush Khandelwal</td></tr><tr><td>Gaurav Mohanty</td></tr><tr><td>Jigar Thakkar</td></tr><tr><td>Prabhsimram Sing Baweja</td></tr>\\n            </table>\\n</div>\\n\\n\\n      </div>\\n    </div>\\n</footer>\\n<script type="text/javascript" src="\', escape=False)\nresponse.write(URL(\'static\',\'js/bootstrap.js\'))\nresponse.write(\'"></script>\\n</body>\\n</html>\\n\', escape=False)'
p7
sS'snapshot'
p8
(dp9
sS'traceback'
p10
S'Traceback (most recent call last):\n  File "/home/ayush/Desktop/web2py/gluon/restricted.py", line 217, in restricted\n    exec ccode in environment\n  File "/home/ayush/Desktop/web2py/applications/UIpart/views/default/hotel_desc.html", line 103, in <module>\nTypeError: string indices must be integers\n'
p11
s.