(dp1
S'output'
p2
S"<type 'exceptions.UnboundLocalError'> local variable 'f' referenced before assignment"
p3
sS'layer'
p4
S'/home/prabhsimran/web2py/applications/UIpart/controllers/default.py'
p5
sS'code'
p6
S'# -*- coding: utf-8 -*-\n# this file is released under public domain and you can use without limitations\n\n#########################################################################\n## This is a samples controller\n## - index is the default action of any application\n## - user is required for authentication and authorization\n## - download is for downloading files uploaded in the db (does streaming)\n## - call exposes all registered services (none by default)\n#########################################################################\n\ndef index():\n    """\n    example action using the internationalization operator T and flash\n    rendered by views/default/index.html or views/generic.html\n    """\n    response.flash = "Welcome to web2py!"\n    return dict(message=T(\'Hello World\'))\n\ndef user():\n    """\n    exposes:\n    http://..../[app]/default/user/login\n    http://..../[app]/default/user/logout\n    http://..../[app]/default/user/register\n    http://..../[app]/default/user/profile\n    http://..../[app]/default/user/retrieve_password\n    http://..../[app]/default/user/change_password\n    use @auth.requires_login()\n        @auth.requires_membership(\'group name\')\n        @auth.requires_permission(\'read\',\'table name\',record_id)\n    to decorate functions that need access control\n    """\n    return dict(form=auth())\n\n\ndef download():\n    """\n    allows downloading of uploaded files\n    http://..../[app]/default/download/[filename]\n    """\n    return response.download(request,db)\n\n\ndef call():\n    """\n    exposes services. for example:\n    http://..../[app]/default/call/jsonrpc\n    decorate with @services.jsonrpc the functions to expose\n    supports xml, json, xmlrpc, jsonrpc, amfrpc, rss, csv\n    """\n    return service()\n\n\n@auth.requires_signature()\ndef data():\n    """\n    http://..../[app]/default/data/tables\n    http://..../[app]/default/data/create/[table]\n    http://..../[app]/default/data/read/[table]/[id]\n    http://..../[app]/default/data/update/[table]/[id]\n    http://..../[app]/default/data/delete/[table]/[id]\n    http://..../[app]/default/data/select/[table]\n    http://..../[app]/default/data/search/[table]\n    but URLs must be signed, i.e. linked with\n      A(\'table\',_href=URL(\'data/tables\',user_signature=True))\n    or with the signed load operator\n      LOAD(\'default\',\'data.load\',args=\'tables\',ajax=True,user_signature=True)\n    """\n    return dict(form=crud())\n\nimport datetime\ndef index():\n\tsession.var=1\n\tform=SQLFORM.factory(\n\t\t\tField(\'From\',requires=IS_IN_DB(db,db.places.body)),\n\t\t\tField(\'To\',requires=IS_IN_DB(db,db.places.body)),\n\t\t\tField(\'d\',\'date\',label=\'Date of journey\',requires=IS_DATE()),\n\t\t\tField(\'Class\',requires=IS_IN_SET([\'Business\',\'Economy\'])),\n\t\t\tField(\'seats\',label=\'Number of passengers\',requires=IS_IN_SET((1,2,3,4,5,6,7,8,9,10))))\n\tif form.accepts(request.vars,session):\n\t\tif form.vars.From == form.vars.To:\n\t\t\tsession.flash="Source and Destination should not be the same!"\n\t\t\tredirect(URL(\'index\'))\n\t\tif form.vars.d<datetime.date.today():\n\t\t\tsession.flash="Enter a valid date!"\n\t\t\tredirect(URL(\'index\'))\n\t\telse:\n\t\t\tredirect(URL(\'search\',args=(request.vars.From,request.vars.To,request.vars.d,request.vars.seats,request.vars.Class)))\n\tsession.var=1\n\treturn dict(form=form)\n\ndef search():\n        session.date=request.args(2)\n        src=db((db.trips.src==request.args(0))&(db.trips.d==request.args(2))&(db.trips.cl==str(request.args(4)))).select()\n        dest=db((db.trips.dest==request.args(1))&(db.trips.cl==str(request.args(4)))).select()\n        \n        if len(src)==0 or len(dest)==0:\n       \t session.flash="No Trips Found! :( "\n         redirect(URL(\'index\'))\n\tlis=[]\n\tfor i in range(0,len(dest)):\n\t\tque=dest[i].name\n\t\tfor j in range(len(src)):\n\t\t\tif que==src[j].name:\n\t\t\t\tlis.append(que)\n\tif len(lis)==0:\n\t  \tsession.flash="No trips found!"\n\t  \tredirect(URL(\'index\'))\n\tseats=[]\n\tprice=[]\n\tlogo=[]\n\tdtime=[]\n\tatime=[]\n\tn=[]\n\tcompany=[]\n\tfor i in range(len(lis)):\n\t\tsend=[]\n\t\tsome=db((db.trips.name==lis[i])&(db.trips.src==request.args(0))).select()\n\t\tif len(some):\n\t\t\tsend.append(some[0].id)\n\t\t\tdesti=some[0].dest\n\t\t\tm=some[0].seats\n\t\t\tp=some[0].price\n\t\t\tdtime.append(some[0].departure)\n\t\t\twhile desti!=request.args(1):\n\t\t\t\tsome=db((db.trips.name==lis[i])&(db.trips.src==desti)).select()\n\t\t\t\tif len(some):\t\n\t\t\t\t\tdesti=some[0].dest\n\t\t\t\t\tif some[0].seats<m:\n\t\t\t\t\t\tm=some[0].seats\n\t\t\t\t\tp+=some[0].price\n\t\t\t\t\tsend.append(some[0].id)\n\t\t\t\telse:\n\t\t\t\t\tsession.flash="No trips Found!"\n\t\t\t\t\tredirect(URL(\'index\'))\n\t\t\tatime.append(some[0].arrival)\n\t\t\tn.append(send)\n\t\t\tlogo.append(some[0].logo)\n\t\t\tcompany.append(some[0].company)\n\t\t\tseats.append(m)\n\t\t\tprice.append(p)\n\t\telse:\n\t\t\tsession.flash="No trips found!"\n\t\t\tredirect(URL(\'index\'))\n\tl=len(lis)\n\tfor i in range(l):\n\t\tif seats[i]<int(request.args(3)):\n\t\t\tseats.remove(seats[i])\n\t\t\tprice.remove(price[i])\n\t\t\tlogo.remove(logo[i])\n\t\t\tatime.remove(atime[i])\n\t\t\tdtime.remove(dtime[i])\n\t\t\tlis.remove(lis[i])\n\tnew=[]\n\tfor i in n:\n\t\tst=""\n\t\tfor j in i:\n\t\t\tst+=str(j)\n\t\t\tst+=\'_\'\n\t\tnew.append(st[0:-1])\n\treturn dict(lis=lis,seats=seats,new=new,price=price,dtime=dtime,atime=atime,logo=logo,company=company)\n\nimport time\n@auth.requires_login()\ndef confirm():\n\tprint session.date\n\treturn dict()\t\n\n\nfrom gluon.tools import Mail\nmail = Mail()\nmail.settings.server = \'smtp.gmail.com:587\'\nmail.settings.sender = \'Traveller\\\'s paradise\'\nmail.settings.login = \'ayushkhandelwal115@gmail.com:ayush115\'\ndef book():\n\tn=request.vars.send\n\tn=request.vars.send.split(\'_\')\n\tred=db((db.trips.name==request.vars.lis)&(db.trips.cl==request.vars.cl)).select()\n\tfor i in range(len(n)):\n\t\tseats=db(db.trips.id==n[i]).select()\n\t\tseat=seats[0].seats\n\t\tdb(db.trips.id==n[i]).update(seats=seat-int(request.vars.seats))\n\tdb.flight_bookings.insert(user_id=auth.user.id,num=request.vars.seats,d=session.date,arrival=request.vars.atime,depart=request.vars.dtime,lis=request.vars.send,price=request.vars.price,booked_in=request.vars.lis,src=request.vars.src,dest=request.vars.dest,cl=request.vars.cl)\n\temail=auth.user.email\n\tmail.send(to=[email],\n\t\t\tsubject=\'Ticket booked!\',\n\t\t\tmessage=\'Flight id :\'+request.vars.lis+\'\\nDeparture time : \'+request.vars.dtime+\'\\nArrival time : \'+request.vars.atime+\'\\nNumber of seats : \'+request.vars.seats+\'\\n\')\n\tsession.flash="Your ticket has been booked!"\n\tredirect(URL(\'index\'))\n\ndef bus_booking():\n\tsession.var=3\t\n\tform=SQLFORM.factory(\n\t\t\tField(\'From\',requires=IS_IN_DB(db,db.places.body)),\n\t\t\tField(\'To\',requires=IS_IN_DB(db,db.places.body)),\n\t\t\tField(\'d\',\'date\',label=\'Date of journey\',requires=IS_DATE()),\n\t\t\tField(\'seats\',label=\'Number of passengers\',requires=IS_IN_SET((1,2,3,4,5,6,7,8,9,10))))\n\tif form.accepts(request.vars,session):\n\t\tif form.vars.From == form.vars.To:\n\t\t\tsession.flash="Source and Destination should not be the same!"\n\t\t\tredirect(URL(\'bus_booking\'))\n\t\tif form.vars.d<datetime.date.today():\n\t\t\tsession.flash="Enter a valid date!"\n\t\t\tredirect(URL(\'bus_booking\'))\n\t\telse:\n\t\t\tredirect(URL(\'bus_result\',args=(request.vars.From,request.vars.To,request.vars.d,request.vars.seats)))  \n\treturn dict(form=form)\n\ndef bus_result():\n\tsession.date=request.args(2)\n\tsrc=db((db.bus_trips.src==request.args(0))&(db.bus_trips.d==request.args(2))&(db.bus_trips.seats>int(request.args(3)))).select()\n\tdest=db((db.bus_trips.dest==request.args(1))&(db.bus_trips.seats>int(request.args(3)))).select()\n    \tif len(src)==0 or len(dest)==0:\n       \t \tsession.flash="No Trips Found! :( "\n        \tredirect(URL(\'bus_booking\'))\n\tlis=[]\n\tfor i in range(0,len(dest)):\n\t\tque=dest[i].name\n\t\tfor j in range(len(src)):\n\t\t\tif que==src[j].name:\n\t\t\t\tlis.append(que)\n\tif len(lis)==0:\n\t  \tsession.flash="No trips found!"\n\t  \tredirect(URL(\'bus_booking\'))\n\tseats=[]\n\tprice=[]\n\tlogo=[]\n\tdtime=[]\n\tatime=[]\n\tn=[]\n\tcompany=[]\n\tfor i in range(len(lis)):\n\t\tsend=[]\n\t\tsome=db((db.bus_trips.name==lis[i])&(db.bus_trips.src==request.args(0))).select()\n\t\tif len(some):\n\t\t\tsend.append(some[0].id)\n\t\t\tdesti=some[0].dest\n\t\t\tm=some[0].seats\n\t\t\tp=some[0].price\n\t\t\tdtime.append(some[0].departure)\n\t\t\twhile desti!=request.args(1):\n\t\t\t\tsome=db((db.bus_trips.name==lis[i])&(db.bus_trips.src==desti)).select()\n\t\t\t\tif len(some):\t\n\t\t\t\t\tdesti=some[0].dest\n\t\t\t\t\tif some[0].seats<m:\n\t\t\t\t\t\tm=some[0].seats\n\t\t\t\t\tp+=some[0].price\n\t\t\t\t\tsend.append(some[0].id)\n\t\t\t\telse:\n\t\t\t\t\tsession.flash="No trips Found!"\n\t\t\t\t\tredirect(URL(\'index\'))\n\t\t\tatime.append(some[0].arrival)\n\t\t\tn.append(send)\n\t\t\tlogo.append(some[0].logo)\n\t\t\tcompany.append(some[0].company)\n\t\t\tseats.append(m)\n\t\t\tprice.append(p)\n\t\telse:\n\t\t\tsession.flash="No trips found!"\n\t\t\tredirect(URL(\'bus_booking\'))\n\tnew=[]\n\tfor i in n:\n\t\tst=""\n\t\tfor j in i:\n\t\t\tst+=str(j)\n\t\t\tst+=\'_\'\n\t\tnew.append(st[0:-1])\n\treturn dict(lis=lis,seats=seats,new=new,price=price,dtime=dtime,atime=atime,logo=logo,company=company)\n\ndef bus_confirm():\n\tprint session.date\n\treturn dict()\t\n\n\nfrom gluon.tools import Mail\nmail = Mail()\nmail.settings.server = \'smtp.gmail.com:587\'\nmail.settings.sender = \'Traveller\\\'s paradise\'\nmail.settings.login = \'ayushkhandelwal115@gmail.com:ayush115\'\ndef bus_book():\n\tn=request.vars.send\n\tn=request.vars.send.split(\'_\')\n\tred=db(db.bus_trips.name==request.vars.lis).select()\n\tfor i in range(len(n)):\n\t\tseats=db(db.bus_trips.id==n[i]).select()\n\t\tseat=seats[0].seats\n\t\tdb(db.bus_trips.id==n[i]).update(seats=seat-int(request.vars.seats))\n\tdb.bus_bookings.insert(user_id=auth.user.id,num=request.vars.seats,d=session.date,arrival=request.vars.atime,depart=request.vars.dtime,lis=request.vars.send,price=request.vars.price,booked_in=request.vars.lis,src=request.vars.src,dest=request.vars.dest)\n\temail=auth.user.email\n\tmail.send(to=[email],\n\t\t\tsubject=\'Ticket booked!\',\n\t\t\tmessage=\'Bus id :\'+request.vars.lis+\'\\nDeparture time : \'+request.vars.dtime+\'\\nArrival time : \'+request.vars.atime+\'\\nNumber of seats : \'+request.vars.seats+\'\\n\')\n\tsession.flash="Your ticket has been booked!"\n\tredirect(URL(\'index\'))\n\n@auth.requires_login()\t\ndef manage():\n\tif (auth.user.Member_Type!=\'admin\'):\n\t\tredirect (URL(\'index\'))\n\t\tsession.flash(\'Only the site adin can access this page!\')\n\tform=SQLFORM(db.trips)\n\tif form.accepts(request.vars,session):\n\t\tsession.flash="something"\n\t\tredirect(URL(\'manage\'))\n\tform2=SQLFORM(db.hotels)\n\tif (form.accepts(request.vars,session)):\n\t\tsession.flash="Hotel added!!Good Work"\n\t\tredirect(URL(\'manage\'))\n\tform3=SQLFORM(db.places)\n\tif (form.accepts(request.vars,session)):\n\t\tsession.flash="New Place added in the database!(y)"\n\t\tredirect(URL(\'manage\'))\n\treturn dict(form=form,form2=form2,form3=form3)\n\nimport urllib\nimport json\nfrom pprint import pprint\nimport datetime\ndef hotel_search():\n\tsession.var=4\n\tform=SQLFORM.factory(\n\t\tField(\'city\',requires=IS_IN_DB(db,db.places.body)),\n\t\tField(\'arrivalDate\',\'date\'),\n\t\tField(\'departDate\',\'date\'),\n\t\tField(\'rooms\',\'integer\',requires=IS_IN_SET((1,2,3,4,5))))\n\tif form.accepts(request.vars,session):\n\t\tarrivalDate=form.vars.arrivalDate\n\t\tdepartDate=form.vars.departDate\n#\t\tarrivalDate=str(form.vars.arrivalDate.strftime("%m/%d/%Y"))\n#\t\tdepartDate=str(form.vars.departDate.strftime("%m/%d/%Y"))\n\t\tredirect(URL(r=request,f=\'hotel\',args=(form.vars.city,form.vars.arrivalDate,form.vars.departDate,form.vars.rooms)))\n\treturn dict(form=form)\n\n\nimport re\n\nTAG_RE = re.compile(r\'<[^>]+>\')\n\ndef remove_tags(text):\n\treturn TAG_RE.sub(\'\', text)\n\n\ndef hotel_desc():\n\tsession.var=4\n\tarrivalDate=request.args(1).split(\'-\')\n\tdepartDate=request.args(2).split(\'-\')\n\tadate=arrivalDate[1]+\'/\'+arrivalDate[2]+\'/\'+arrivalDate[0] \n\tddate=departDate[1]+\'/\'+departDate[2]+\'/\'+departDate[0] \n\trooms=""\n\tfor i in range(0,int(request.args(3))):\n\t\trooms+="&room"+str(i+1)+"=2"\n\tlink="http://api.ean.com/ean-services/rs/hotel/v3/avail?&cid=55505&apiKey=nmtccjsdemu6hkg73wcct44t&locale=en_US&currencyCode=INR&hotelId="+request.args(0)+"&arrivalDate="+adate+"&departureDate="+ddate+"&includeDetails=true&includeRoomImages=true"+rooms\n\tlink2="http://api.ean.com/ean-services/rs/hotel/v3/info?cid=55505&apiKey=nmtccjsdemu6hkg73wcct44t&locale=en_US&currencyCode=INR&xml=<HotelInformationRequest><hotelId>"+request.args(0)+"</hotelId><options>0</options></HotelInformationRequest>"\n\ta=urllib.urlopen(link)\n\tdata=json.loads(a.read())\n\ta=urllib.urlopen(link2)\n\tdata2=json.loads(a.read())\n\thotel=data[\'HotelRoomAvailabilityResponse\']\n\tli=data[\'HotelRoomAvailabilityResponse\'][\'HotelRoomResponse\']\n\tdesc=data2[\'HotelInformationResponse\'][\'HotelDetails\'][\'propertyDescription\']\n\trooms=data2[\'HotelInformationResponse\'][\'RoomTypes\']\n\treturn dict(li=li,hotel=hotel,rooms=rooms,desc=desc)\t\n\n@auth.requires_login()\ndef profile():\n\trec=db(auth.user.id==db.auth_user.id).select()\n\tform=crud.update(db.auth_user,auth.user.id)\n\tcrud.settings.update_deletable = False\n\tif (form.process().accepted):\n\t\tredirect(URL(\'profile\'))\n\treturn locals()\n\n@auth.requires_login()\ndef viewbookings():\n        rec=db(db.auth_user.id==auth.user.id).select(db.hotels.ALL,orderby=db.hotels.checkin)\n        flight=db(db.auth_user.id==auth.user.id).select(db.flight_bookings.ALL,orderby=db.flight_bookings.d)\n        return locals()\n\ndef hotel():\n\tsession.var=4\n\trooms=""\n\tadate=""\n\tddate=""\n\tfor i in range(0,int(request.args(3))):\n\t\trooms+="&room"+str(i+1)+"=2"\n\tarrivalDate=request.args(1).split(\'-\')\n\tdepartDate=request.args(2).split(\'-\')\n\tadate=arrivalDate[1]+\'/\'+arrivalDate[2]+\'/\'+arrivalDate[0] \n\tddate=departDate[1]+\'/\'+departDate[2]+\'/\'+departDate[0] \n\tlink="http://api.ean.com/ean-services/rs/hotel/v3/list?cid=55505&apiKey=nmtccjsdemu6hkg73wcct44t&locale=en_US&currencyCode=INR&city="+request.args(0)+"&countryCode=IN&supplierCacheTolerance=MED&arrivalDate="+adate+"&departureDate="+ddate+rooms+"&numberOfResults=10&supplierCacheTolerance=MED_ENHANCED"\n\ta=urllib.urlopen(link)\n\tdata=json.loads(a.read())\n\tli=data["HotelListResponse"]["HotelList"]["HotelSummary"]\n\treturn dict(li=li,rooms=rooms)\n\ndef hotel_confirm():\n\tsession.var=4\n\tarrivalDate=request.args(1).split(\'-\')\n\tdepartDate=request.args(2).split(\'-\')\n\tadate=arrivalDate[1]+\'/\'+arrivalDate[2]+\'/\'+arrivalDate[0] \n\tddate=departDate[1]+\'/\'+departDate[2]+\'/\'+departDate[0] \n\trooms=""\n\tfor i in range(0,int(request.args(3))):\n\t\trooms+="&room"+str(i+1)+"=2"\n\tlink="http://api.ean.com/ean-services/rs/hotel/v3/avail?&cid=55505&apiKey=nmtccjsdemu6hkg73wcct44t&locale=en_US&currencyCode=INR&hotelId="+request.args(0)+"&arrivalDate="+adate+"&departureDate="+ddate+"&includeDetails=true&includeRoomImages=true"+rooms\n\ta=urllib.urlopen(link)\n\tdata=json.loads(a.read())\n\thotel=data[\'HotelRoomAvailabilityResponse\']\n\tli=hotel[\'HotelRoomResponse\']\n\tfin=[]\n\tfor i in range(len(li)):\n\t\tif str(li[i][\'roomTypeCode\'])==str(request.args(4)):\n\t\t\tfin=li[i]\n\t\t\tbreak\n\treturn dict(hotel=hotel,fin=fin)\n\n@auth.requires_login()\ndef booking_done():\n\tsession.var=4\n\tdb.hotels.insert(user_id=str(auth.user.id),checkin=request.args(1),checkout=request.args(2),hotel_code=request.args(0),room_code=request.args(4),rooms=request.args(3))\n\tredirect(URL(\'index\'))\n\treturn dict()\n\ndef add_flight():\n\tcities=db(db.places.id>0).select(db.places.body)\n\treturn dict(cities=cities)\n\ndef add_new():\n\ta=type("")\n\tsrc=request.vars.src\n\tdest=request.vars.dest\n\tprice=request.vars.price\n\tatime=request.vars.arrival\n\tdtime=request.vars.depart\n\tday=request.vars.day\n\ttmp=[]\n\tif type(src)==a:\n\t\tprint \'yes\'\n\t\ttmp.append(src)\n\t\tsrc=tmp\n\t\ttmp=[]\n\t\ttmp.append(dest)\n\t\tdest=tmp\n\t\ttmp=[]\n\t\ttmp.append(price)\n\t\tprice=tmp\n\t\ttmp=[]\n\t\ttmp.append(atime)\n\t\tatime=tmp\n\t\ttmp=[]\n\t\ttmp.append(dtime)\n\t\tdtime=tmp\n\t\ttmp=[]\n\t\ttmp.append(day)\n\t\tday=tmp\n\tprint src\n\tprint dest\n\tprint atime\n\tprint dtime\n\tseatseconomy=int(request.vars.seatseconomy)\n\tseatsbusiness=int(request.vars.seatsbusiness)\n\tdate=datetime.datetime.strptime(request.vars.d,"%Y-%m-%d")\n\tday_len=len(day)\n\tto=datetime.date.today()\n\tdelta=datetime.timedelta(days=1)\n\twhile(day_len):\n\t\tif to.weekday() in day:\n\t\t\tadd_date.append(to)\n\t\tto+=delta\n\t\tday_len-=1\n\tadd_date=[]\n\tif seatseconomy:\n\t  \ttmp=add_date\n\t  \tfor k in range(52):\n\t  \t\tfor j in tmp:\n\t\t\t\tfor i in range(len(src)):\n\t\t\t\t\tdb.trips.insert(src=src[i],dest=dest[i],d=date,price=price[i],departure=dtime[i],arrival=atime[i],cl=\'Economy\',seats=seatseconomy,company=request.vars.company,name=request.vars.name)\n\t\t\tfor j in tmp:\n\t\t\t\ttmp[j]+=datetime.timedelta(days=7)\n\tif seatsbusiness:\n\t\tfor k in range(52):\n\t\t\ttmp=add_date\n\t\t\tfor j in tmp:\n\t\t\t\tfor i in range(len(src)):\n\t\t\t\t\tdb.trips.insert(src=src[i],dest=dest[i],d=date,price=price[i],departure=dtime[i],arrival=atime[i],cl=\'Business\',seats=seatsbusiness,company=request.vars.company,name=request.vars.name)\n\t\t\tfor j in tmp:\n\t\t\t\ttmp[j]+=datetime.timedelta(days=7)\n\treturn dict()\ndef recent():\n        fl=db().select(db.flight_booking.ALL,orderby=~db.flight_booking.ALL)\n        ht=db().select(db.flight_booking.ALL,orderby=~db.flight_booking.ALL)\n        return locals()\n\nfrom random import randint\ndef advertisement():\n        fl=db().select(db.trips.ALL)\n        l=len(fl)\n        flnum=randint(0,l)\n        ht=db().select(db.trips.ALL)\n        lh=len(ht)\n        htnum=randint(0,lh)\n        return locals()\n\n\ndef dum():\n#       print "DADSDAS"\n        print "id=",\n        print int(request.args[1])\n        if (int(request.args[0])==1):\n                db(db.hotels.id==int(request.args[1])).delete()\n                email=auth.user.email\n\t        mail.send(to=[email],\n\t\t\t        subject=\'Hotel Cancellation\',\n\t\t\t        message=\'You have Cancelled your booking for the hotel\'+str(request.args[3])+\'which was booked from\'+str(request.args[1])+\'to\'+str(request.args[2])+\'. TheAmount after cutting the cancelation prices will be transfered to you.\' \n                        )\n        elif (int(request.args[0])==0):\n                q=db((db.flight_bookings.id==int(request.args[1]))).select()\n                a=q[0][\'lis\'].split(\'_\')\n                print a[0]+\'ds\'+a[1],\n                print len(a)\n                for i in range(len(a)):\n                        s= db(db.trips.id==int(a[i])).select(db.trips.seats)\n                        db(db.trips.id==int(a[i])).update(seats=s[0][\'seats\']+int(request.args[3]))\n                db(db.flight_bookings.id==int(request.args[1])).delete()\n                email=auth.user.email\n\t        mail.send(to=[email],\n\t\t\t        subject=\'Flight Cancellation\',\n\t\t\t        message=\'Your flight booking for \'+q[0][\'booked_in\']+\' from \'+q[0][\'src\']+\' to \'+q[0][\'dest\']+\' on \'+str(q[0][\'d\'])+\' has been cancelled.\'   \n                        )\n\n        redirect(URL(\'viewbookings\'))\n        \n        return locals()\n@auth.requires_login()\ndef profile():\n\trec=db(auth.user.id==db.auth_user.id).select()\n\tform=crud.update(db.auth_user,auth.user.id)\n\tcrud.settings.update_deletable = False\n\tif (form.process().accepted):\n\t\tredirect(URL(\'profile\'))\n\treturn locals()\n\n@auth.requires_login()\ndef flight_review():\n        form=SQLFORM(db.review)\n        form.vars.user_id=auth.user.id\n        if (form.process().accepted):\n                f=form.vars.id\n                rec=db(db.trips.name==form.vars.flight_name).select(db.trips.Rating)\n                count=db(db.review.flight_name==form.vars.flight_name).select()\n                c=float(len(count))\n                print c\n                x=(int(form.vars.rating)+(rec[0][\'Rating\']))\n                print x\n                if (c<=0):\n                        db((db.trips.name==form.vars.flight_name)).update(Rating=(rec[0][\'Rating\']+((int(form.vars.rating)))))\n                else:\n                        db((db.trips.name==form.vars.flight_name)).update(Rating=x)\n        return locals()\n        \n@auth.requires_login()\ndef viewbookings():\n        print auth.user.id\n        ctr1=0\n        ctr2=0\n        c1=0\n        c2=0\n        import datetime\n        d1=datetime.date.today()\n        rec=db(db.hotels.user_id==auth.user.id).select(db.hotels.ALL,orderby=db.hotels.checkin)\n        flag1=0\n        flag2=0\n        f1=0\n        f2=0\n        print len(rec),\n        print \'dad\'\n        print ctr1\n        for i in range(len(rec)):\n                if ((rec[i][\'checkin\']-d1)<datetime.timedelta(0)):\n                        ctr1=ctr1+1 \n                elif ((rec[i][\'checkin\']-d1)>=datetime.timedelta(0)):\n                        c1=c1+1\n        if (ctr1==0):\n                flag1=1\n        if (c1==0):\n                f1=1\n        print flag1\n        flight=db(db.flight_bookings.user_id==auth.user.id).select(db.flight_bookings.ALL,orderby=db.flight_bookings.d)\n        for i in range(len(flight)):\n                if ((flight[i][\'d\']-d1)<datetime.timedelta(0)):\n                        ctr2=ctr2+1 \n                if ((flight[i][\'d\']-d1)>=datetime.timedelta(0)):\n                        c2=c2+1\n        if (ctr2==0):\n                flag2=1\n        if (c2==0):\n                f2=1\n        return locals()\n\nimport re\nimport os\nimport bs4\nfrom bs4 import BeautifulSoup\nfrom mechanize import Browser\nbrowser=Browser()\nsoup=\'\'\ndef railway():\n        session.var=2\n\tform=SQLFORM.factory(\n\t\t\tField(\'From\',requires=IS_IN_DB(db,db.rail.body)),\n\t\t\tField(\'To\',requires=IS_IN_DB(db,db.rail.body)),\n\t\t\tField(\'d\',\'date\',label=\'Date of journey\',requires=IS_DATE()))\n        if form.accepts(request.vars,session):\n            if form.vars.From == form.vars.To:\n                session.flash="Source and Destination should not be the same!"\n                redirect(URL(\'index\'))\n            if form.vars.d<datetime.date.today():\n                session.flash="Enter a valid date!"\n                redirect(URL(\'index\'))\n            else:\n                redirect(URL(r=request,f=\'rail\',args=(form.vars.From,form.vars.To,form.vars.d)))\n        return dict(form=form)\ndef rail():\n        browser.open("http://www.indianrail.gov.in/know_Station_Code.html")\n        browser.select_form(nr=0)\n        browser.set_all_readonly(False)\n        source=request.args(0).split(\'_\')\n        browser[\'lccp_src_stncode_dis\']=str(source[-1])\n        browser[\'lccp_src_stncode\']=str(source[-1])\n        dest=request.args(1).split(\'_\')\n        browser[\'lccp_dstn_stncode_dis\']=str(dest[-1])\n        browser[\'lccp_dstn_stncode\']=str(dest[-1])\n        \n        \n\n        browser[\'lccp_classopt\']=[\'ZZ\']\n        p=request.args(2).split(\'-\')\n        browser[\'lccp_day\']=str(p[2])\n        browser[\'lccp_month\']=str(p[1])\n        response=browser.submit()\n        content=response.read()\n       # print content\n        f=\'\'\n        trains=re.findall(\'<INPUT TYPE=.*>.*</TR>\',content,re.DOTALL)\n        for f in trains:\n              f=f.replace(\'lccp_class2\',\'lccp_class1\')\n              f=f.replace(\'lccp_class3\',\'lccp_class1\')\n              f=f.replace(\'lccp_class4\',\'lccp_class1\')\n              f=f.replace(\'lccp_class5\',\'lccp_class1\')\n              f=f.replace(\'lccp_class6\',\'lccp_class1\')\n              f=re.sub(\'<input name=.*?/>\',\'\xe2\x9c\x94\',str(f))\n              f=re.sub(\'<input checked=.*?/>\',\'\xe2\x9c\x94\',str(f))\n        soup=BeautifulSoup(f)\n        soup=re.sub(\'<input name=.*?/>\',\'\xe2\x9c\x94\',str(soup))\n        soup=re.sub(\'<input checked=.*?/>\',\'\xe2\x9c\x94\',str(soup))\n        soup=re.sub(\'<input name=.*?/>\',\'\xe2\x9c\x94\',str(soup))\n        a=re.findall(\'<td>\xe2\x9c\x94\\d+</td>\',soup)\n        q=[]\n        for i in a:\n            q.append(eval(((re.findall(\'\\d+\',i))[0])))\n        #soup=re.sub(\'\xe2\x9c\x94[^\\\\n]\',\' \',str(soup))\n        soup=BeautifulSoup(soup)\n        soup=soup.table\n        if str(soup)=="None":\n            redirect(URL(\'railway\'))\n            session.flash="no trains found"\n#\tsoup=XML(soup)\n        form=SQLFORM.factory(\n                Field(\'t\',label=\'Train Schedule\',requires=IS_IN_SET(q)))\n        if form.accepts(request.vars,session):\n                        redirect(URL(r=request,f=\'route\',args=(form.vars.t)))\n        return dict(soup=soup,q=q,form=form)\n\n    \ndef route():\n        br=Browser()\n        br.open("http://www.indianrail.gov.in/inet_trn_num.html")\n        br.select_form(nr=0)\n        br.set_all_readonly(False)\n        br[\'lccp_trnname\']=str(request.args(0))\n        response=br.submit()\n        content=response.read()\n        route=re.findall(\'<TR class="heading_table_top">.*</TABLE>\',content,re.DOTALL)\n        for f in route:\n            a=1\n        soup=BeautifulSoup(f)\n        soup=soup.table\n        return dict(soup=soup)\n\nresponse._vars=response._caller(route)\n'
p7
sS'snapshot'
p8
(dp9
S'exception'
p10
(dp11
S'__hash__'
p12
S"<method-wrapper '__hash__' of exceptions.UnboundLocalError object>"
p13
sS'__setattr__'
p14
S"<method-wrapper '__setattr__' of exceptions.UnboundLocalError object>"
p15
sS'__reduce_ex__'
p16
S'<built-in method __reduce_ex__ of exceptions.UnboundLocalError object>'
p17
sS'__getslice__'
p18
S"<method-wrapper '__getslice__' of exceptions.UnboundLocalError object>"
p19
sS'__getitem__'
p20
S"<method-wrapper '__getitem__' of exceptions.UnboundLocalError object>"
p21
sS'__setstate__'
p22
S'<built-in method __setstate__ of exceptions.UnboundLocalError object>'
p23
sS'args'
p24
S'("local variable \'f\' referenced before assignment",)'
p25
sS'__reduce__'
p26
S'<built-in method __reduce__ of exceptions.UnboundLocalError object>'
p27
sS'__str__'
p28
S"<method-wrapper '__str__' of exceptions.UnboundLocalError object>"
p29
sS'__format__'
p30
S'<built-in method __format__ of exceptions.UnboundLocalError object>'
p31
sS'__getattribute__'
p32
S"<method-wrapper '__getattribute__' of exceptions.UnboundLocalError object>"
p33
sS'__class__'
p34
S"<type 'exceptions.UnboundLocalError'>"
p35
sS'__unicode__'
p36
S'<built-in method __unicode__ of exceptions.UnboundLocalError object>'
p37
sS'__delattr__'
p38
S"<method-wrapper '__delattr__' of exceptions.UnboundLocalError object>"
p39
sS'__subclasshook__'
p40
S'<built-in method __subclasshook__ of type object>'
p41
sS'__repr__'
p42
S"<method-wrapper '__repr__' of exceptions.UnboundLocalError object>"
p43
sS'__dict__'
p44
S'{}'
p45
sS'__sizeof__'
p46
S'<built-in method __sizeof__ of exceptions.UnboundLocalError object>'
p47
sS'__doc__'
p48
S"'Local name referenced but not bound to a value.'"
p49
sS'__init__'
p50
S"<method-wrapper '__init__' of exceptions.UnboundLocalError object>"
p51
sS'__new__'
p52
S'<built-in method __new__ of type object>'
p53
ssS'evalue'
p54
S"local variable 'f' referenced before assignment"
p55
sS'request'
p56
cgluon.html
XML_unpickle
p57
(S's(`\x00\x00<div><table><tr><td style="font-weight:bold;vertical-align:top;">ajax</td><td style="vertical-align:top;">:</td><td><div>False</div></td></tr><tr><td style="font-weight:bold;vertical-align:top;">application</td><td style="vertical-align:top;">:</td><td><div>UIpart</div></td></tr><tr><td style="font-weight:bold;vertical-align:top;">args</td><td style="vertical-align:top;">:</td><td><div><table><tr><td><div>undefined</div></td></tr></table></div></td></tr><tr><td style="font-weight:bold;vertical-align:top;">cid</td><td style="vertical-align:top;">:</td><td><div>None</div></td></tr><tr><td style="font-weight:bold;vertical-align:top;">client</td><td style="vertical-align:top;">:</td><td><div>127.0.0.1</div></td></tr><tr><td style="font-weight:bold;vertical-align:top;">controller</td><td style="vertical-align:top;">:</td><td><div>default</div></td></tr><tr><td style="font-weight:bold;vertical-align:top;">cookies</td><td style="vertical-align:top;">:</td><td><div><table><tr><td style="font-weight:bold;vertical-align:top;">session_id_admin</td><td style="vertical-align:top;">:</td><td><div>127.0.0.1-c94c7c22-ebde-4e04-acfe-b4aa464af4ef<table><tr><td style="font-weight:bold;vertical-align:top;">comment</td><td style="vertical-align:top;">:</td><td><div></div></td></tr><tr><td style="font-weight:bold;vertical-align:top;">domain</td><td style="vertical-align:top;">:</td><td><div></div></td></tr><tr><td style="font-weight:bold;vertical-align:top;">expires</td><td style="vertical-align:top;">:</td><td><div></div></td></tr><tr><td style="font-weight:bold;vertical-align:top;">httponly</td><td style="vertical-align:top;">:</td><td><div></div></td></tr><tr><td style="font-weight:bold;vertical-align:top;">max-age</td><td style="vertical-align:top;">:</td><td><div></div></td></tr><tr><td style="font-weight:bold;vertical-align:top;">path</td><td style="vertical-align:top;">:</td><td><div></div></td></tr><tr><td style="font-weight:bold;vertical-align:top;">secure</td><td style="vertical-align:top;">:</td><td><div></div></td></tr><tr><td style="font-weight:bold;vertical-align:top;">version</td><td style="vertical-align:top;">:</td><td><div></div></td></tr></table></div></td></tr><tr><td style="font-weight:bold;vertical-align:top;">session_id_ssad</td><td style="vertical-align:top;">:</td><td><div>127.0.0.1-7830f68a-4544-4df4-b73b-e7749e80dcf1<table><tr><td style="font-weight:bold;vertical-align:top;">comment</td><td style="vertical-align:top;">:</td><td><div></div></td></tr><tr><td style="font-weight:bold;vertical-align:top;">domain</td><td style="vertical-align:top;">:</td><td><div></div></td></tr><tr><td style="font-weight:bold;vertical-align:top;">expires</td><td style="vertical-align:top;">:</td><td><div></div></td></tr><tr><td style="font-weight:bold;vertical-align:top;">httponly</td><td style="vertical-align:top;">:</td><td><div></div></td></tr><tr><td style="font-weight:bold;vertical-align:top;">max-age</td><td style="vertical-align:top;">:</td><td><div></div></td></tr><tr><td style="font-weight:bold;vertical-align:top;">path</td><td style="vertical-align:top;">:</td><td><div></div></td></tr><tr><td style="font-weight:bold;vertical-align:top;">secure</td><td style="vertical-align:top;">:</td><td><div></div></td></tr><tr><td style="font-weight:bold;vertical-align:top;">version</td><td style="vertical-align:top;">:</td><td><div></div></td></tr></table></div></td></tr><tr><td style="font-weight:bold;vertical-align:top;">session_id_uipart</td><td style="vertical-align:top;">:</td><td><div>127.0.0.1-f42be818-e2f8-4024-8fed-d86d80eacb8b<table><tr><td style="font-weight:bold;vertical-align:top;">comment</td><td style="vertical-align:top;">:</td><td><div></div></td></tr><tr><td style="font-weight:bold;vertical-align:top;">domain</td><td style="vertical-align:top;">:</td><td><div></div></td></tr><tr><td style="font-weight:bold;vertical-align:top;">expires</td><td style="vertical-align:top;">:</td><td><div></div></td></tr><tr><td style="font-weight:bold;vertical-align:top;">httponly</td><td style="vertical-align:top;">:</td><td><div></div></td></tr><tr><td style="font-weight:bold;vertical-align:top;">max-age</td><td style="vertical-align:top;">:</td><td><div></div></td></tr><tr><td style="font-weight:bold;vertical-align:top;">path</td><td style="vertical-align:top;">:</td><td><div></div></td></tr><tr><td style="font-weight:bold;vertical-align:top;">secure</td><td style="vertical-align:top;">:</td><td><div></div></td></tr><tr><td style="font-weight:bold;vertical-align:top;">version</td><td style="vertical-align:top;">:</td><td><div></div></td></tr></table></div></td></tr><tr><td style="font-weight:bold;vertical-align:top;">session_id_welcome</td><td style="vertical-align:top;">:</td><td><div>127.0.0.1-283d165c-5a18-4d5c-ae0b-8515bb140ca3<table><tr><td style="font-weight:bold;vertical-align:top;">comment</td><td style="vertical-align:top;">:</td><td><div></div></td></tr><tr><td style="font-weight:bold;vertical-align:top;">domain</td><td style="vertical-align:top;">:</td><td><div></div></td></tr><tr><td style="font-weight:bold;vertical-align:top;">expires</td><td style="vertical-align:top;">:</td><td><div></div></td></tr><tr><td style="font-weight:bold;vertical-align:top;">httponly</td><td style="vertical-align:top;">:</td><td><div></div></td></tr><tr><td style="font-weight:bold;vertical-align:top;">max-age</td><td style="vertical-align:top;">:</td><td><div></div></td></tr><tr><td style="font-weight:bold;vertical-align:top;">path</td><td style="vertical-align:top;">:</td><td><div></div></td></tr><tr><td style="font-weight:bold;vertical-align:top;">secure</td><td style="vertical-align:top;">:</td><td><div></div></td></tr><tr><td style="font-weight:bold;vertical-align:top;">version</td><td style="vertical-align:top;">:</td><td><div></div></td></tr></table></div></td></tr></table></div></td></tr><tr><td style="font-weight:bold;vertical-align:top;">env</td><td style="vertical-align:top;">:</td><td><div><table><tr><td style="font-weight:bold;vertical-align:top;">HTTP_ACCEPT</td><td style="vertical-align:top;">:</td><td><div>image/png,image/*;q=0.8,*/*;q=0.5</div></td></tr><tr><td style="font-weight:bold;vertical-align:top;">HTTP_ACCEPT_ENCODING</td><td style="vertical-align:top;">:</td><td><div>gzip, deflate</div></td></tr><tr><td style="font-weight:bold;vertical-align:top;">HTTP_ACCEPT_LANGUAGE</td><td style="vertical-align:top;">:</td><td><div>en-US,en;q=0.5</div></td></tr><tr><td style="font-weight:bold;vertical-align:top;">HTTP_CONNECTION</td><td style="vertical-align:top;">:</td><td><div>keep-alive</div></td></tr><tr><td style="font-weight:bold;vertical-align:top;">HTTP_COOKIE</td><td style="vertical-align:top;">:</td><td><div>session_id_welcome=127.0.0.1-283d165c-5a18-4d5c-ae0b-8515bb140ca3; session_id_admin=127.0.0.1-c94c7c22-ebde-4e04-acfe-b4aa464af4ef; session_id_uipart=127.0.0.1-f42be818-e2f8-4024-8fed-d86d80eacb8b; session_id_ssad=127.0.0.1-7830f68a-4544-4df4-b73b-e7749e80dcf1</div></td></tr><tr><td style="font-weight:bold;vertical-align:top;">HTTP_HOST</td><td style="vertical-align:top;">:</td><td><div>127.0.0.1:8000</div></td></tr><tr><td style="font-weight:bold;vertical-align:top;">HTTP_REFERER</td><td style="vertical-align:top;">:</td><td><div>http://127.0.0.1:8000/UIpart/default/route/22811</div></td></tr><tr><td style="font-weight:bold;vertical-align:top;">HTTP_USER_AGENT</td><td style="vertical-align:top;">:</td><td><div>Mozilla/5.0 (X11; Ubuntu; Linux x86_64; rv:25.0) Gecko/20100101 Firefox/25.0</div></td></tr><tr><td style="font-weight:bold;vertical-align:top;">PATH_INFO</td><td style="vertical-align:top;">:</td><td><div>/UIpart/default/route/undefined</div></td></tr><tr><td style="font-weight:bold;vertical-align:top;">QUERY_STRING</td><td style="vertical-align:top;">:</td><td><div>1385930341077</div></td></tr><tr><td style="font-weight:bold;vertical-align:top;">REMOTE_ADDR</td><td style="vertical-align:top;">:</td><td><div>127.0.0.1</div></td></tr><tr><td style="font-weight:bold;vertical-align:top;">REMOTE_PORT</td><td style="vertical-align:top;">:</td><td><div>50481</div></td></tr><tr><td style="font-weight:bold;vertical-align:top;">REQUEST_METHOD</td><td style="vertical-align:top;">:</td><td><div>GET</div></td></tr><tr><td style="font-weight:bold;vertical-align:top;">SCRIPT_NAME</td><td style="vertical-align:top;">:</td><td><div></div></td></tr><tr><td style="font-weight:bold;vertical-align:top;">SERVER_NAME</td><td style="vertical-align:top;">:</td><td><div>prabhsimran-Inspiron-7520</div></td></tr><tr><td style="font-weight:bold;vertical-align:top;">SERVER_PORT</td><td style="vertical-align:top;">:</td><td><div>8000</div></td></tr><tr><td style="font-weight:bold;vertical-align:top;">SERVER_PROTOCOL</td><td style="vertical-align:top;">:</td><td><div>HTTP/1.1</div></td></tr><tr><td style="font-weight:bold;vertical-align:top;">SERVER_SOFTWARE</td><td style="vertical-align:top;">:</td><td><div>Rocket 1.2.6</div></td></tr><tr><td style="font-weight:bold;vertical-align:top;">app_folders</td><td style="vertical-align:top;">:</td><td><div>set([&#x27;/home/prabhsimran/web2py/applications/welcome/&#x27;, &#x27;/home/prabhsimran/web2py/applications/admin/&#x27;, &#x27;/home/prabhsimran/web2py/applications/UIpart/&#x27;, &#x27;/home/prabhsimran/web2py/applications/ssad/&#x27;])</div></td></tr><tr><td style="font-weight:bold;vertical-align:top;">applications_parent</td><td style="vertical-align:top;">:</td><td><div>/home/prabhsimran/web2py</div></td></tr><tr><td style="font-weight:bold;vertical-align:top;">cmd_args</td><td style="vertical-align:top;">:</td><td><div><table></table></div></td></tr><tr><td style="font-weight:bold;vertical-align:top;">cmd_options</td><td style="vertical-align:top;">:</td><td><div>&lt;Values at 0x1b2de18: {&#x27;verbose&#x27;: False, &#x27;ip&#x27;: &#x27;127.0.0.1&#x27;, &#x27;debuglevel&#x27;: 30, &#x27;with_scheduler&#x27;: False, &#x27;ips&#x27;: [&#x27;127.0.1.1&#x27;], &#x27;shutdown_timeout&#x27;: 5, &#x27;taskbar&#x27;: False, &#x27;with_coverage&#x27;: False, &#x27;port&#x27;: 8000, &#x27;maxthreads&#x27;: None, &#x27;softcron&#x27;: False, &#x27;server_name&#x27;: &#x27;prabhsimran-Inspiron-7520&#x27;, &#x27;bpython&#x27;: False, &#x27;nogui&#x27;: False, &#x27;pid_filename&#x27;: &#x27;httpserver.pid&#x27;, &#x27;extcron&#x27;: False, &#x27;runcron&#x27;: False, &#x27;run_system_tests&#x27;: False, &#x27;test&#x27;: None, &#x27;folder&#x27;: &#x27;/home/prabhsimran/web2py&#x27;, &#x27;config&#x27;: &#x27;&#x27;, &#x27;minthreads&#x27;: None, &#x27;winservice&#x27;: &#x27;&#x27;, &#x27;shell&#x27;: None, &#x27;run&#x27;: &#x27;&#x27;, &#x27;log_filename&#x27;: &#x27;httpserver.log&#x27;, &#x27;profiler_dir&#x27;: None, &#x27;args&#x27;: [&#x27;&#x27;], &#x27;socket_timeout&#x27;: 5, &#x27;ssl_ca_certificate&#x27;: None, &#x27;scheduler&#x27;: None, &#x27;interfaces&#x27;: None, &#x27;ssl_private_key&#x27;: &#x27;&#x27;, &#x27;scheduler_groups&#x27;: None, &#x27;password&#x27;: &#x27;&lt;ask&gt;&#x27;, &#x27;request_queue_size&#x27;: 5, &#x27;ssl_certificate&#x27;: &#x27;&#x27;, &#x27;cronjob&#x27;: False, &#x27;numthreads&#x27;: None, &#x27;quiet&#x27;: False, &#x27;import_models&#x27;: False, &#x27;timeout&#x27;: 10, &#x27;plain&#x27;: False, &#x27;nobanner&#x27;: False}&gt;</div></td></tr><tr><td style="font-weight:bold;vertical-align:top;">db_sessions</td><td style="vertical-align:top;">:</td><td><div>set([])</div></td></tr><tr><td style="font-weight:bold;vertical-align:top;">debugging</td><td style="vertical-align:top;">:</td><td><div>True</div></td></tr><tr><td style="font-weight:bold;vertical-align:top;">gluon_parent</td><td style="vertical-align:top;">:</td><td><div>/home/prabhsimran/web2py</div></td></tr><tr><td style="font-weight:bold;vertical-align:top;">http_accept</td><td style="vertical-align:top;">:</td><td><div>image/png,image/*;q=0.8,*/*;q=0.5</div></td></tr><tr><td style="font-weight:bold;vertical-align:top;">http_accept_encoding</td><td style="vertical-align:top;">:</td><td><div>gzip, deflate</div></td></tr><tr><td style="font-weight:bold;vertical-align:top;">http_accept_language</td><td style="vertical-align:top;">:</td><td><div>en-US,en;q=0.5</div></td></tr><tr><td style="font-weight:bold;vertical-align:top;">http_connection</td><td style="vertical-align:top;">:</td><td><div>keep-alive</div></td></tr><tr><td style="font-weight:bold;vertical-align:top;">http_cookie</td><td style="vertical-align:top;">:</td><td><div>session_id_welcome=127.0.0.1-283d165c-5a18-4d5c-ae0b-8515bb140ca3; session_id_admin=127.0.0.1-c94c7c22-ebde-4e04-acfe-b4aa464af4ef; session_id_uipart=127.0.0.1-f42be818-e2f8-4024-8fed-d86d80eacb8b; session_id_ssad=127.0.0.1-7830f68a-4544-4df4-b73b-e7749e80dcf1</div></td></tr><tr><td style="font-weight:bold;vertical-align:top;">http_host</td><td style="vertical-align:top;">:</td><td><div>127.0.0.1:8000</div></td></tr><tr><td style="font-weight:bold;vertical-align:top;">http_referer</td><td style="vertical-align:top;">:</td><td><div>http://127.0.0.1:8000/UIpart/default/route/22811</div></td></tr><tr><td style="font-weight:bold;vertical-align:top;">http_user_agent</td><td style="vertical-align:top;">:</td><td><div>Mozilla/5.0 (X11; Ubuntu; Linux x86_64; rv:25.0) Gecko/20100101 Firefox/25.0</div></td></tr><tr><td style="font-weight:bold;vertical-align:top;">is_jython</td><td style="vertical-align:top;">:</td><td><div>False</div></td></tr><tr><td style="font-weight:bold;vertical-align:top;">is_pypy</td><td style="vertical-align:top;">:</td><td><div>False</div></td></tr><tr><td style="font-weight:bold;vertical-align:top;">is_source</td><td style="vertical-align:top;">:</td><td><div>True</div></td></tr><tr><td style="font-weight:bold;vertical-align:top;">local_hosts</td><td style="vertical-align:top;">:</td><td><div><table><tr><td><div>::1</div></td></tr><tr><td><div>127.0.1.1</div></td></tr><tr><td><div>::ffff:127.0.0.1</div></td></tr><tr><td><div>127.0.0.1</div></td></tr><tr><td><div>prabhsimran-Inspiron-7520</div></td></tr></table></div></td></tr><tr><td style="font-weight:bold;vertical-align:top;">path_info</td><td style="vertical-align:top;">:</td><td><div>/UIpart/default/route/undefined</div></td></tr><tr><td style="font-weight:bold;vertical-align:top;">query_string</td><td style="vertical-align:top;">:</td><td><div>1385930341077</div></td></tr><tr><td style="font-weight:bold;vertical-align:top;">remote_addr</td><td style="vertical-align:top;">:</td><td><div>127.0.0.1</div></td></tr><tr><td style="font-weight:bold;vertical-align:top;">remote_port</td><td style="vertical-align:top;">:</td><td><div>50481</div></td></tr><tr><td style="font-weight:bold;vertical-align:top;">request_method</td><td style="vertical-align:top;">:</td><td><div>GET</div></td></tr><tr><td style="font-weight:bold;vertical-align:top;">request_uri</td><td style="vertical-align:top;">:</td><td><div>/UIpart/default/route/undefined?1385930341077</div></td></tr><tr><td style="font-weight:bold;vertical-align:top;">script_name</td><td style="vertical-align:top;">:</td><td><div></div></td></tr><tr><td style="font-weight:bold;vertical-align:top;">server_name</td><td style="vertical-align:top;">:</td><td><div>prabhsimran-Inspiron-7520</div></td></tr><tr><td style="font-weight:bold;vertical-align:top;">server_port</td><td style="vertical-align:top;">:</td><td><div>8000</div></td></tr><tr><td style="font-weight:bold;vertical-align:top;">server_protocol</td><td style="vertical-align:top;">:</td><td><div>HTTP/1.1</div></td></tr><tr><td style="font-weight:bold;vertical-align:top;">server_software</td><td style="vertical-align:top;">:</td><td><div>Rocket 1.2.6</div></td></tr><tr><td style="font-weight:bold;vertical-align:top;">web2py_path</td><td style="vertical-align:top;">:</td><td><div>/home/prabhsimran/web2py</div></td></tr><tr><td style="font-weight:bold;vertical-align:top;">web2py_version</td><td style="vertical-align:top;">:</td><td><div>2.7.4-stable+timestamp.2013.10.14.15.16.29</div></td></tr><tr><td style="font-weight:bold;vertical-align:top;">wsgi.errors</td><td style="vertical-align:top;">:</td><td><div>&lt;open file &#x27;&lt;stderr&gt;&#x27;, mode &#x27;w&#x27; at 0x7ff10a1e11e0&gt;</div></td></tr><tr><td style="font-weight:bold;vertical-align:top;">wsgi.file_wrapper</td><td style="vertical-align:top;">:</td><td><div>&lt;class wsgiref.util.FileWrapper at 0x1a7ce20&gt;</div></td></tr><tr><td style="font-weight:bold;vertical-align:top;">wsgi.input</td><td style="vertical-align:top;">:</td><td><div>&lt;socket._fileobject object at 0x7ff0f02b95d0&gt;</div></td></tr><tr><td style="font-weight:bold;vertical-align:top;">wsgi.multiprocess</td><td style="vertical-align:top;">:</td><td><div>False</div></td></tr><tr><td style="font-weight:bold;vertical-align:top;">wsgi.multithread</td><td style="vertical-align:top;">:</td><td><div>True</div></td></tr><tr><td style="font-weight:bold;vertical-align:top;">wsgi.run_once</td><td style="vertical-align:top;">:</td><td><div>False</div></td></tr><tr><td style="font-weight:bold;vertical-align:top;">wsgi.url_scheme</td><td style="vertical-align:top;">:</td><td><div>http</div></td></tr><tr><td style="font-weight:bold;vertical-align:top;">wsgi.version</td><td style="vertical-align:top;">:</td><td><div><table><tr><td><div>1</div></td></tr><tr><td><div>0</div></td></tr></table></div></td></tr><tr><td style="font-weight:bold;vertical-align:top;">wsgi_errors</td><td style="vertical-align:top;">:</td><td><div>&lt;open file &#x27;&lt;stderr&gt;&#x27;, mode &#x27;w&#x27; at 0x7ff10a1e11e0&gt;</div></td></tr><tr><td style="font-weight:bold;vertical-align:top;">wsgi_file_wrapper</td><td style="vertical-align:top;">:</td><td><div>&lt;class wsgiref.util.FileWrapper at 0x1a7ce20&gt;</div></td></tr><tr><td style="font-weight:bold;vertical-align:top;">wsgi_input</td><td style="vertical-align:top;">:</td><td><div>&lt;socket._fileobject object at 0x7ff0f02b95d0&gt;</div></td></tr><tr><td style="font-weight:bold;vertical-align:top;">wsgi_multiprocess</td><td style="vertical-align:top;">:</td><td><div>False</div></td></tr><tr><td style="font-weight:bold;vertical-align:top;">wsgi_multithread</td><td style="vertical-align:top;">:</td><td><div>True</div></td></tr><tr><td style="font-weight:bold;vertical-align:top;">wsgi_run_once</td><td style="vertical-align:top;">:</td><td><div>False</div></td></tr><tr><td style="font-weight:bold;vertical-align:top;">wsgi_url_scheme</td><td style="vertical-align:top;">:</td><td><div>http</div></td></tr><tr><td style="font-weight:bold;vertical-align:top;">wsgi_version</td><td style="vertical-align:top;">:</td><td><div><table><tr><td><div>1</div></td></tr><tr><td><div>0</div></td></tr></table></div></td></tr></table></div></td></tr><tr><td style="font-weight:bold;vertical-align:top;">extension</td><td style="vertical-align:top;">:</td><td><div>html</div></td></tr><tr><td style="font-weight:bold;vertical-align:top;">folder</td><td style="vertical-align:top;">:</td><td><div>/home/prabhsimran/web2py/applications/UIpart/</div></td></tr><tr><td style="font-weight:bold;vertical-align:top;">function</td><td style="vertical-align:top;">:</td><td><div>route</div></td></tr><tr><td style="font-weight:bold;vertical-align:top;">global_settings</td><td style="vertical-align:top;">:</td><td><div><table><tr><td style="font-weight:bold;vertical-align:top;">app_folders</td><td style="vertical-align:top;">:</td><td><div>set([&#x27;/home/prabhsimran/web2py/applications/welcome/&#x27;, &#x27;/home/prabhsimran/web2py/applications/admin/&#x27;, &#x27;/home/prabhsimran/web2py/applications/UIpart/&#x27;, &#x27;/home/prabhsimran/web2py/applications/ssad/&#x27;])</div></td></tr><tr><td style="font-weight:bold;vertical-align:top;">applications_parent</td><td style="vertical-align:top;">:</td><td><div>/home/prabhsimran/web2py</div></td></tr><tr><td style="font-weight:bold;vertical-align:top;">cmd_args</td><td style="vertical-align:top;">:</td><td><div><table></table></div></td></tr><tr><td style="font-weight:bold;vertical-align:top;">cmd_options</td><td style="vertical-align:top;">:</td><td><div>&lt;Values at 0x1b2de18: {&#x27;verbose&#x27;: False, &#x27;ip&#x27;: &#x27;127.0.0.1&#x27;, &#x27;debuglevel&#x27;: 30, &#x27;with_scheduler&#x27;: False, &#x27;ips&#x27;: [&#x27;127.0.1.1&#x27;], &#x27;shutdown_timeout&#x27;: 5, &#x27;taskbar&#x27;: False, &#x27;with_coverage&#x27;: False, &#x27;port&#x27;: 8000, &#x27;maxthreads&#x27;: None, &#x27;softcron&#x27;: False, &#x27;server_name&#x27;: &#x27;prabhsimran-Inspiron-7520&#x27;, &#x27;bpython&#x27;: False, &#x27;nogui&#x27;: False, &#x27;pid_filename&#x27;: &#x27;httpserver.pid&#x27;, &#x27;extcron&#x27;: False, &#x27;runcron&#x27;: False, &#x27;run_system_tests&#x27;: False, &#x27;test&#x27;: None, &#x27;folder&#x27;: &#x27;/home/prabhsimran/web2py&#x27;, &#x27;config&#x27;: &#x27;&#x27;, &#x27;minthreads&#x27;: None, &#x27;winservice&#x27;: &#x27;&#x27;, &#x27;shell&#x27;: None, &#x27;run&#x27;: &#x27;&#x27;, &#x27;log_filename&#x27;: &#x27;httpserver.log&#x27;, &#x27;profiler_dir&#x27;: None, &#x27;args&#x27;: [&#x27;&#x27;], &#x27;socket_timeout&#x27;: 5, &#x27;ssl_ca_certificate&#x27;: None, &#x27;scheduler&#x27;: None, &#x27;interfaces&#x27;: None, &#x27;ssl_private_key&#x27;: &#x27;&#x27;, &#x27;scheduler_groups&#x27;: None, &#x27;password&#x27;: &#x27;&lt;ask&gt;&#x27;, &#x27;request_queue_size&#x27;: 5, &#x27;ssl_certificate&#x27;: &#x27;&#x27;, &#x27;cronjob&#x27;: False, &#x27;numthreads&#x27;: None, &#x27;quiet&#x27;: False, &#x27;import_models&#x27;: False, &#x27;timeout&#x27;: 10, &#x27;plain&#x27;: False, &#x27;nobanner&#x27;: False}&gt;</div></td></tr><tr><td style="font-weight:bold;vertical-align:top;">db_sessions</td><td style="vertical-align:top;">:</td><td><div>set([])</div></td></tr><tr><td style="font-weight:bold;vertical-align:top;">debugging</td><td style="vertical-align:top;">:</td><td><div>True</div></td></tr><tr><td style="font-weight:bold;vertical-align:top;">gluon_parent</td><td style="vertical-align:top;">:</td><td><div>/home/prabhsimran/web2py</div></td></tr><tr><td style="font-weight:bold;vertical-align:top;">is_jython</td><td style="vertical-align:top;">:</td><td><div>False</div></td></tr><tr><td style="font-weight:bold;vertical-align:top;">is_pypy</td><td style="vertical-align:top;">:</td><td><div>False</div></td></tr><tr><td style="font-weight:bold;vertical-align:top;">is_source</td><td style="vertical-align:top;">:</td><td><div>True</div></td></tr><tr><td style="font-weight:bold;vertical-align:top;">local_hosts</td><td style="vertical-align:top;">:</td><td><div><table><tr><td><div>::1</div></td></tr><tr><td><div>127.0.1.1</div></td></tr><tr><td><div>::ffff:127.0.0.1</div></td></tr><tr><td><div>127.0.0.1</div></td></tr><tr><td><div>prabhsimran-Inspiron-7520</div></td></tr></table></div></td></tr><tr><td style="font-weight:bold;vertical-align:top;">web2py_version</td><td style="vertical-align:top;">:</td><td><div>2.7.4-stable+timestamp.2013.10.14.15.16.29</div></td></tr></table></div></td></tr><tr><td style="font-weight:bold;vertical-align:top;">is_https</td><td style="vertical-align:top;">:</td><td><div>False</div></td></tr><tr><td style="font-weight:bold;vertical-align:top;">is_local</td><td style="vertical-align:top;">:</td><td><div>True</div></td></tr><tr><td style="font-weight:bold;vertical-align:top;">is_restful</td><td style="vertical-align:top;">:</td><td><div>False</div></td></tr><tr><td style="font-weight:bold;vertical-align:top;">now</td><td style="vertical-align:top;">:</td><td><div>datetime.datetime(2013, 12, 2, 2, 9, 1, 110565)</div></td></tr><tr><td style="font-weight:bold;vertical-align:top;">raw_args</td><td style="vertical-align:top;">:</td><td><div>undefined</div></td></tr><tr><td style="font-weight:bold;vertical-align:top;">raw_extension</td><td style="vertical-align:top;">:</td><td><div>None</div></td></tr><tr><td style="font-weight:bold;vertical-align:top;">url</td><td style="vertical-align:top;">:</td><td><div>/UIpart/default/route/undefined</div></td></tr><tr><td style="font-weight:bold;vertical-align:top;">utcnow</td><td style="vertical-align:top;">:</td><td><div>datetime.datetime(2013, 12, 1, 20, 39, 1, 110575)</div></td></tr><tr><td style="font-weight:bold;vertical-align:top;">uuid</td><td style="vertical-align:top;">:</td><td><div>UIpart/127.0.0.1.2013-12-02.02-09-01.92c59d8f-0427-4eb6-ac40-4319120380ff</div></td></tr><tr><td style="font-weight:bold;vertical-align:top;">wsgi</td><td style="vertical-align:top;">:</td><td><div>&lt;gluon.main.LazyWSGI object at 0x7ff0e00faad0&gt;</div></td></tr></table></div>'
tRp58
sS'frames'
p59
(lp60
(dp61
S'file'
p62
S'/home/prabhsimran/web2py/gluon/restricted.py'
p63
sS'dump'
p64
(dp65
S'environment'
p66
S"{'A': <class 'gluon.html.A'>, 'ANY_OF': <class 'gluon.validators.ANY_OF'>, 'Auth': <class 'gluon.tools.Auth'>, 'B': <class 'gluon.html.B'>, 'BEAUTIFY': <class 'gluon.html.BEAUTIFY'>, 'BODY': <class 'gluon.html.BODY'>, 'BR': <class 'gluon.html.BR'>, 'BUTTON': <class 'gluon.html.BUTTON'>, 'BeautifulSoup': <class 'bs4.BeautifulSoup'>, 'Browser': <class mechanize._mechanize.Browser>, ...}"
p67
sS'ccode'
p68
S'<code object <module> at 0x7ff0dc4ffbb0, file "/...ications/UIpart/controllers/default.py", line 12>'
p69
ssS'lnum'
p70
I217
sS'lines'
p71
(dp72
I212
S'    try:'
p73
sI213
S'        if isinstance(code, types.CodeType):'
p74
sI214
S'            ccode = code'
p75
sI215
S'        else:'
p76
sI216
S'            ccode = compile2(code, layer)'
p77
sI217
S'        exec ccode in environment'
p78
sI218
S'    except HTTP:'
p79
sI219
S'        raise'
p80
sI220
S'    except RestrictedError:'
p81
sI221
S'        # do not encapsulate (obfuscate) the original RestrictedError'
p82
ssS'call'
p83
S"(code='# -*- coding: utf-8 -*-\\n# this file is released ...up=soup)\\n\\nresponse._vars=response._caller(route)\\n', environment={'A': <class 'gluon.html.A'>, 'ANY_OF': <class 'gluon.validators.ANY_OF'>, 'Auth': <class 'gluon.tools.Auth'>, 'B': <class 'gluon.html.B'>, 'BEAUTIFY': <class 'gluon.html.BEAUTIFY'>, 'BODY': <class 'gluon.html.BODY'>, 'BR': <class 'gluon.html.BR'>, 'BUTTON': <class 'gluon.html.BUTTON'>, 'BeautifulSoup': <class 'bs4.BeautifulSoup'>, 'Browser': <class mechanize._mechanize.Browser>, ...}, layer='/home/prabhsimran/web2py/applications/UIpart/controllers/default.py')"
p84
sS'func'
p85
S'restricted'
p86
sa(dp87
g62
S'/home/prabhsimran/web2py/applications/UIpart/controllers/default.py'
p88
sg64
(dp89
sg70
I691
sg71
(dp90
I680
S'        br.set_all_readonly(False)'
p91
sI681
S"        br['lccp_trnname']=str(request.args(0))"
p92
sI682
S'        response=br.submit()'
p93
sI683
S'        content=response.read()'
p94
sI684
S'        route=re.findall(\'<TR class="heading_table_top">.*</TABLE>\',content,re.DOTALL)'
p95
sI685
S'        for f in route:'
p96
sI686
S'            a=1'
p97
sI687
S'        soup=BeautifulSoup(f)'
p98
sI688
S'        soup=soup.table'
p99
sI689
S'        return dict(soup=soup)'
p100
ssg83
S'()'
p101
sg85
S'<module>'
p102
sa(dp103
g62
S'/home/prabhsimran/web2py/gluon/globals.py'
p104
sg64
(dp105
S'self'
p106
S'undefined'
p107
sS'f'
S'<function route>'
p108
ssg70
I372
sg71
(dp109
I367
S'        self.menu = []             # used by the default view layout'
p110
sI368
S'        self.files = []            # used by web2py_ajax.html'
p111
sI369
S'        self.generic_patterns = []  # patterns to allow generic views'
p112
sI370
S"        self.delimiters = ('{{', '}}')"
p113
sI371
S'        self._vars = None'
p114
sI372
S'        self._caller = lambda f: f()'
p115
sI373
S'        self._view_environment = None'
p116
sI374
S'        self._custom_commit = None'
p117
sI375
S'        self._custom_rollback = None'
p118
sI376
S''
ssg83
S'(f=<function route>)'
p119
sg85
S'<lambda>'
p120
sa(dp121
g62
S'/home/prabhsimran/web2py/applications/UIpart/controllers/default.py'
p122
sg64
(dp123
S'f'
g107
sS'global soup'
p124
S"''"
p125
sS'global BeautifulSoup'
p126
S"<class 'bs4.BeautifulSoup'>"
p127
ssg70
I687
sg71
(dp128
I680
S'        br.set_all_readonly(False)'
p129
sI681
S"        br['lccp_trnname']=str(request.args(0))"
p130
sI682
S'        response=br.submit()'
p131
sI683
S'        content=response.read()'
p132
sI684
S'        route=re.findall(\'<TR class="heading_table_top">.*</TABLE>\',content,re.DOTALL)'
p133
sI685
S'        for f in route:'
p134
sI686
S'            a=1'
p135
sI687
S'        soup=BeautifulSoup(f)'
p136
sI688
S'        soup=soup.table'
p137
sI689
S'        return dict(soup=soup)'
p138
ssg83
S'()'
p139
sg85
S'route'
p140
sasS'pyver'
p141
S'Python 2.7.4: /usr/bin/python (prefix: /usr)'
p142
sS'session'
p143
g57
(S's\x16\x0c\x00\x00<div><table><tr><td style="font-weight:bold;vertical-align:top;">auth</td><td style="vertical-align:top;">:</td><td><div><table><tr><td style="font-weight:bold;vertical-align:top;">expiration</td><td style="vertical-align:top;">:</td><td><div>3600</div></td></tr><tr><td style="font-weight:bold;vertical-align:top;">hmac_key</td><td style="vertical-align:top;">:</td><td><div>49463595-5ca7-4597-b049-aee074bdf586</div></td></tr><tr><td style="font-weight:bold;vertical-align:top;">last_visit</td><td style="vertical-align:top;">:</td><td><div>datetime.datetime(2013, 12, 2, 2, 8, 59, 781846)</div></td></tr><tr><td style="font-weight:bold;vertical-align:top;">user</td><td style="vertical-align:top;">:</td><td><div><table><tr><td style="font-weight:bold;vertical-align:top;">City</td><td style="vertical-align:top;">:</td><td><div>Chandigarh</div></td></tr><tr><td style="font-weight:bold;vertical-align:top;">Country</td><td style="vertical-align:top;">:</td><td><div>India</div></td></tr><tr><td style="font-weight:bold;vertical-align:top;">Member_Type</td><td style="vertical-align:top;">:</td><td><div>user</div></td></tr><tr><td style="font-weight:bold;vertical-align:top;">Phone</td><td style="vertical-align:top;">:</td><td><div>1232345435L</div></td></tr><tr><td style="font-weight:bold;vertical-align:top;">Username</td><td style="vertical-align:top;">:</td><td><div>Prab</div></td></tr><tr><td style="font-weight:bold;vertical-align:top;">email</td><td style="vertical-align:top;">:</td><td><div>prab@gmail.com</div></td></tr><tr><td style="font-weight:bold;vertical-align:top;">first_name</td><td style="vertical-align:top;">:</td><td><div>Prabh</div></td></tr><tr><td style="font-weight:bold;vertical-align:top;">id</td><td style="vertical-align:top;">:</td><td><div>12L</div></td></tr><tr><td style="font-weight:bold;vertical-align:top;">last_name</td><td style="vertical-align:top;">:</td><td><div>Baweja</div></td></tr><tr><td style="font-weight:bold;vertical-align:top;">registration_id</td><td style="vertical-align:top;">:</td><td><div></div></td></tr><tr><td style="font-weight:bold;vertical-align:top;">registration_key</td><td style="vertical-align:top;">:</td><td><div></div></td></tr><tr><td style="font-weight:bold;vertical-align:top;">reset_password_key</td><td style="vertical-align:top;">:</td><td><div></div></td></tr></table></div></td></tr><tr><td style="font-weight:bold;vertical-align:top;">user_groups</td><td style="vertical-align:top;">:</td><td><div><table></table></div></td></tr></table></div></td></tr><tr><td style="font-weight:bold;vertical-align:top;">flash</td><td style="vertical-align:top;">:</td><td><div>None</div></td></tr><tr><td style="font-weight:bold;vertical-align:top;">last_orderby</td><td style="vertical-align:top;">:</td><td><div>None</div></td></tr><tr><td style="font-weight:bold;vertical-align:top;">last_query</td><td style="vertical-align:top;">:</td><td><div>db.rail.id&gt;0</div></td></tr><tr><td style="font-weight:bold;vertical-align:top;">var</td><td style="vertical-align:top;">:</td><td><div>2</div></td></tr></table></div>'
tRp144
sS'etype'
p145
S"<type 'exceptions.UnboundLocalError'>"
p146
sS'date'
p147
S'Mon Dec  2 02:09:03 2013'
p148
sS'response'
p149
g57
(S's#2\x00\x00<div><table><tr><td style="font-weight:bold;vertical-align:top;">body</td><td style="vertical-align:top;">:</td><td><div>&lt;cStringIO.StringO object at 0x7ff0d41b1ab0&gt;</div></td></tr><tr><td style="font-weight:bold;vertical-align:top;">cookies</td><td style="vertical-align:top;">:</td><td><div><table><tr><td style="font-weight:bold;vertical-align:top;">session_id_uipart</td><td style="vertical-align:top;">:</td><td><div>127.0.0.1-f42be818-e2f8-4024-8fed-d86d80eacb8b<table><tr><td style="font-weight:bold;vertical-align:top;">comment</td><td style="vertical-align:top;">:</td><td><div></div></td></tr><tr><td style="font-weight:bold;vertical-align:top;">domain</td><td style="vertical-align:top;">:</td><td><div></div></td></tr><tr><td style="font-weight:bold;vertical-align:top;">expires</td><td style="vertical-align:top;">:</td><td><div></div></td></tr><tr><td style="font-weight:bold;vertical-align:top;">httponly</td><td style="vertical-align:top;">:</td><td><div></div></td></tr><tr><td style="font-weight:bold;vertical-align:top;">max-age</td><td style="vertical-align:top;">:</td><td><div></div></td></tr><tr><td style="font-weight:bold;vertical-align:top;">path</td><td style="vertical-align:top;">:</td><td><div>/</div></td></tr><tr><td style="font-weight:bold;vertical-align:top;">secure</td><td style="vertical-align:top;">:</td><td><div></div></td></tr><tr><td style="font-weight:bold;vertical-align:top;">version</td><td style="vertical-align:top;">:</td><td><div></div></td></tr></table></div></td></tr></table></div></td></tr><tr><td style="font-weight:bold;vertical-align:top;">delimiters</td><td style="vertical-align:top;">:</td><td><div><table><tr><td><div>{{</div></td></tr><tr><td><div>}}</div></td></tr></table></div></td></tr><tr><td style="font-weight:bold;vertical-align:top;">files</td><td style="vertical-align:top;">:</td><td><div><table></table></div></td></tr><tr><td style="font-weight:bold;vertical-align:top;">flash</td><td style="vertical-align:top;">:</td><td><div></div></td></tr><tr><td style="font-weight:bold;vertical-align:top;">generic_patterns</td><td style="vertical-align:top;">:</td><td><div><table><tr><td><div>*</div></td></tr></table></div></td></tr><tr><td style="font-weight:bold;vertical-align:top;">google_analytics_id</td><td style="vertical-align:top;">:</td><td><div>None</div></td></tr><tr><td style="font-weight:bold;vertical-align:top;">headers</td><td style="vertical-align:top;">:</td><td><div><table><tr><td style="font-weight:bold;vertical-align:top;">X-Powered-By</td><td style="vertical-align:top;">:</td><td><div>web2py</div></td></tr></table></div></td></tr><tr><td style="font-weight:bold;vertical-align:top;">logo</td><td style="vertical-align:top;">:</td><td><div><a class="brand" data-w2p_disable_with="default" href="http://www.web2py.com/"><b>web<span>2</span>py</b>&trade;&nbsp;</a></div></td></tr><tr><td style="font-weight:bold;vertical-align:top;">menu</td><td style="vertical-align:top;">:</td><td><div><table><tr><td><div><table><tr><td><div>Home</div></td></tr><tr><td><div>False</div></td></tr><tr><td><div>/UIpart/default/index</div></td></tr><tr><td><div><table></table></div></td></tr></table></div></td></tr><tr><td><div><table><tr><td><div><span class="highlighted">web2py</span></div></td></tr><tr><td><div>False</div></td></tr><tr><td><div>http://web2py.com</div></td></tr><tr><td><div><table><tr><td><div><table><tr><td><div>My Sites</div></td></tr><tr><td><div>False</div></td></tr><tr><td><div>/admin/default/site</div></td></tr></table></div></td></tr><tr><td><div><table><tr><td><div>This App</div></td></tr><tr><td><div>False</div></td></tr><tr><td><div>/admin/default/design/UIpart</div></td></tr><tr><td><div>[(&lt;lazyT &#x27;Controller&#x27;&gt;, False, &#x27;/admin/default/edit/UIpart/controllers/default.py&#x27;), (&lt;lazyT &#x27;View&#x27;&gt;, False, &#x27;/admin/default/edit/UIpart/views/default/route.html&#x27;), (&lt;lazyT &#x27;Layout&#x27;&gt;, False, &#x27;/admin/default/edit/UIpart/views/layout.html&#x27;), (&lt;lazyT &#x27;Stylesheet&#x27;&gt;, False, &#x27;/admin/default/edit/UIpart/static/css/web2py.css&#x27;), (&lt;lazyT &#x27;DB Model&#x27;&gt;, False, &#x27;/admin/default/edit/UIpart/models/db.py&#x27;), (&lt;lazyT &#x27;Menu Model&#x27;&gt;, False, &#x27;/admin/default/edit/UIpart/models/menu.py&#x27;), (&lt;lazyT &#x27;Database&#x27;&gt;, False, &#x27;/UIpart/appadmin/index&#x27;), (&lt;lazyT &#x27;Errors&#x27;&gt;, False, &#x27;/admin/default/errors/UIpart&#x27;), (&lt;lazyT &#x27;About&#x27;&gt;, False, &#x27;/admin/default/about/UIpart&#x27;)]</div></td></tr></table></div></td></tr><tr><td><div><table><tr><td><div>web2py.com</div></td></tr><tr><td><div>False</div></td></tr><tr><td><div>http://www.web2py.com</div></td></tr><tr><td><div>[(&lt;lazyT &#x27;Download&#x27;&gt;, False, &#x27;http://www.web2py.com/examples/default/download&#x27;), (&lt;lazyT &#x27;Support&#x27;&gt;, False, &#x27;http://www.web2py.com/examples/default/support&#x27;), (&lt;lazyT &#x27;Demo&#x27;&gt;, False, &#x27;http://web2py.com/demo_admin&#x27;), (&lt;lazyT &#x27;Quick Examples&#x27;&gt;, False, &#x27;http://web2py.com/examples/default/examples&#x27;), (&lt;lazyT &#x27;FAQ&#x27;&gt;, False, &#x27;http://web2py.com/AlterEgo&#x27;), (&lt;lazyT &#x27;Videos&#x27;&gt;, False, &#x27;http://www.web2py.com/examples/default/videos/&#x27;), (&lt;lazyT &#x27;Free Applications&#x27;&gt;, False, &#x27;http://web2py.com/appliances&#x27;), (&lt;lazyT &#x27;Plugins&#x27;&gt;, False, &#x27;http://web2py.com/plugins&#x27;), (&lt;lazyT &#x27;Layouts&#x27;&gt;, False, &#x27;http://web2py.com/layouts&#x27;), (&lt;lazyT &#x27;Recipes&#x27;&gt;, False, &#x27;http://web2pyslices.com/&#x27;), (&lt;lazyT &#x27;Semantic&#x27;&gt;, False, &#x27;http://web2py.com/semantic&#x27;)]</div></td></tr></table></div></td></tr><tr><td><div><table><tr><td><div>Documentation</div></td></tr><tr><td><div>False</div></td></tr><tr><td><div>http://www.web2py.com/book</div></td></tr><tr><td><div>[(&lt;lazyT &#x27;Preface&#x27;&gt;, False, &#x27;http://www.web2py.com/book/default/chapter/00&#x27;), (&lt;lazyT &#x27;Introduction&#x27;&gt;, False, &#x27;http://www.web2py.com/book/default/chapter/01&#x27;), (&lt;lazyT &#x27;Python&#x27;&gt;, False, &#x27;http://www.web2py.com/book/default/chapter/02&#x27;), (&lt;lazyT &#x27;Overview&#x27;&gt;, False, &#x27;http://www.web2py.com/book/default/chapter/03&#x27;), (&lt;lazyT &#x27;The Core&#x27;&gt;, False, &#x27;http://www.web2py.com/book/default/chapter/04&#x27;), (&lt;lazyT &#x27;The Views&#x27;&gt;, False, &#x27;http://www.web2py.com/book/default/chapter/05&#x27;), (&lt;lazyT &#x27;Database&#x27;&gt;, False, &#x27;http://www.web2py.com/book/default/chapter/06&#x27;), (&lt;lazyT &#x27;Forms and Validators&#x27;&gt;, False, &#x27;http://www.web2py.com/book/default/chapter/07&#x27;), (&lt;lazyT &#x27;Email and SMS&#x27;&gt;, False, &#x27;http://www.web2py.com/book/default/chapter/08&#x27;), (&lt;lazyT &#x27;Access Control&#x27;&gt;, False, &#x27;http://www.web2py.com/book/default/chapter/09&#x27;), (&lt;lazyT &#x27;Services&#x27;&gt;, False, &#x27;http://www.web2py.com/book/default/chapter/10&#x27;), (&lt;lazyT &#x27;Ajax Recipes&#x27;&gt;, False, &#x27;http://www.web2py.com/book/default/chapter/11&#x27;), (&lt;lazyT &#x27;Components and Plugins&#x27;&gt;, False, &#x27;http://www.web2py.com/book/default/chapter/12&#x27;), (&lt;lazyT &#x27;Deployment Recipes&#x27;&gt;, False, &#x27;http://www.web2py.com/book/default/chapter/13&#x27;), (&lt;lazyT &#x27;Other Recipes&#x27;&gt;, False, &#x27;http://www.web2py.com/book/default/chapter/14&#x27;), (&lt;lazyT &#x27;Buy this book&#x27;&gt;, False, &#x27;http://stores.lulu.com/web2py&#x27;)]</div></td></tr></table></div></td></tr><tr><td><div><table><tr><td><div>Community</div></td></tr><tr><td><div>False</div></td></tr><tr><td><div>None</div></td></tr><tr><td><div>[(&lt;lazyT &#x27;Groups&#x27;&gt;, False, &#x27;http://www.web2py.com/examples/default/usergroups&#x27;), (&lt;lazyT &#x27;Twitter&#x27;&gt;, False, &#x27;http://twitter.com/web2py&#x27;), (&lt;lazyT &#x27;Live Chat&#x27;&gt;, False, &#x27;http://webchat.freenode.net/?channels=web2py&#x27;)]</div></td></tr></table></div></td></tr><tr><td><div><table><tr><td><div>Plugins</div></td></tr><tr><td><div>False</div></td></tr><tr><td><div>None</div></td></tr><tr><td><div>[(&#x27;plugin_wiki&#x27;, False, &#x27;http://web2py.com/examples/default/download&#x27;), (&lt;lazyT &#x27;Other Plugins&#x27;&gt;, False, &#x27;http://web2py.com/plugins&#x27;), (&lt;lazyT &#x27;Layout Plugins&#x27;&gt;, False, &#x27;http://web2py.com/layouts&#x27;)]</div></td></tr></table></div></td></tr></table></div></td></tr></table></div></td></tr></table></div></td></tr><tr><td style="font-weight:bold;vertical-align:top;">meta</td><td style="vertical-align:top;">:</td><td><div><table><tr><td style="font-weight:bold;vertical-align:top;">author</td><td style="vertical-align:top;">:</td><td><div>Your Name &lt;you@example.com&gt;</div></td></tr><tr><td style="font-weight:bold;vertical-align:top;">description</td><td style="vertical-align:top;">:</td><td><div>a cool new app</div></td></tr><tr><td style="font-weight:bold;vertical-align:top;">generator</td><td style="vertical-align:top;">:</td><td><div>Web2py Web Framework</div></td></tr><tr><td style="font-weight:bold;vertical-align:top;">keywords</td><td style="vertical-align:top;">:</td><td><div>web2py, python, framework</div></td></tr></table></div></td></tr><tr><td style="font-weight:bold;vertical-align:top;">models_to_run</td><td style="vertical-align:top;">:</td><td><div><table><tr><td><div>^\\w+\\.py$</div></td></tr><tr><td><div>^default/\\w+\\.py$</div></td></tr><tr><td><div>^default/route/\\w+\\.py$</div></td></tr></table></div></td></tr><tr><td style="font-weight:bold;vertical-align:top;">postprocessing</td><td style="vertical-align:top;">:</td><td><div><table></table></div></td></tr><tr><td style="font-weight:bold;vertical-align:top;">session_client</td><td style="vertical-align:top;">:</td><td><div>127.0.0.1</div></td></tr><tr><td style="font-weight:bold;vertical-align:top;">session_cookie_compression_level</td><td style="vertical-align:top;">:</td><td><div>None</div></td></tr><tr><td style="font-weight:bold;vertical-align:top;">session_cookie_expires</td><td style="vertical-align:top;">:</td><td><div>None</div></td></tr><tr><td style="font-weight:bold;vertical-align:top;">session_cookie_key</td><td style="vertical-align:top;">:</td><td><div>None</div></td></tr><tr><td style="font-weight:bold;vertical-align:top;">session_data_name</td><td style="vertical-align:top;">:</td><td><div>session_data_uipart</div></td></tr><tr><td style="font-weight:bold;vertical-align:top;">session_file</td><td style="vertical-align:top;">:</td><td><div>&lt;open file &#x27;/home/prabhsimran/web2py/applications/UIpart/sessions/127.0.0.1-f42be818-e2f8-4024-8fed-d86d80eacb8b&#x27;, mode &#x27;rb+&#x27; at 0x7ff0e42648a0&gt;</div></td></tr><tr><td style="font-weight:bold;vertical-align:top;">session_filename</td><td style="vertical-align:top;">:</td><td><div>/home/prabhsimran/web2py/applications/UIpart/sessions/127.0.0.1-f42be818-e2f8-4024-8fed-d86d80eacb8b</div></td></tr><tr><td style="font-weight:bold;vertical-align:top;">session_hash</td><td style="vertical-align:top;">:</td><td><div>bce03692f2fa4db9a5658df3042e1527</div></td></tr><tr><td style="font-weight:bold;vertical-align:top;">session_id</td><td style="vertical-align:top;">:</td><td><div>127.0.0.1-f42be818-e2f8-4024-8fed-d86d80eacb8b</div></td></tr><tr><td style="font-weight:bold;vertical-align:top;">session_id_name</td><td style="vertical-align:top;">:</td><td><div>session_id_uipart</div></td></tr><tr><td style="font-weight:bold;vertical-align:top;">session_locked</td><td style="vertical-align:top;">:</td><td><div>True</div></td></tr><tr><td style="font-weight:bold;vertical-align:top;">session_masterapp</td><td style="vertical-align:top;">:</td><td><div>UIpart</div></td></tr><tr><td style="font-weight:bold;vertical-align:top;">session_new</td><td style="vertical-align:top;">:</td><td><div>False</div></td></tr><tr><td style="font-weight:bold;vertical-align:top;">session_storage_type</td><td style="vertical-align:top;">:</td><td><div>file</div></td></tr><tr><td style="font-weight:bold;vertical-align:top;">status</td><td style="vertical-align:top;">:</td><td><div>200</div></td></tr><tr><td style="font-weight:bold;vertical-align:top;">subtitle</td><td style="vertical-align:top;">:</td><td><div>customize me!</div></td></tr><tr><td style="font-weight:bold;vertical-align:top;">title</td><td style="vertical-align:top;">:</td><td><div>Uipart</div></td></tr><tr><td style="font-weight:bold;vertical-align:top;">view</td><td style="vertical-align:top;">:</td><td><div>default/route.html</div></td></tr></table></div>'
tRp150
sS'locals'
p151
(dp152
S'content'
p153
S'\'\\n<HTML>\\n<HEAD><head><title>Welcome to Indian Rai...init("menuanchorclass")</script>\\n</BODY>\\n</HTML>\\n\''
p154
sg140
S'[]'
p155
sg149
S'<response_seek_wrapper at 0x7ff0cc217b48 whose w...dc245f38 whose fp = <socket._fileobject object>>>'
p156
sS'br'
p157
S'<mechanize._mechanize.Browser instance>'
p158
sssS'traceback'
p159
S'Traceback (most recent call last):\n  File "/home/prabhsimran/web2py/gluon/restricted.py", line 217, in restricted\n    exec ccode in environment\n  File "/home/prabhsimran/web2py/applications/UIpart/controllers/default.py", line 691, in <module>\n  File "/home/prabhsimran/web2py/gluon/globals.py", line 372, in <lambda>\n    self._caller = lambda f: f()\n  File "/home/prabhsimran/web2py/applications/UIpart/controllers/default.py", line 687, in route\n    soup=BeautifulSoup(f)\nUnboundLocalError: local variable \'f\' referenced before assignment\n'
p160
s.