(dp1
S'output'
p2
S"<class 'urllib2.URLError'> <urlopen error [Errno 111] Connection refused>"
p3
sS'layer'
p4
S'/home/mohanty/web2py/applications/UIpart/controllers/default.py'
p5
sS'code'
p6
S'# -*- coding: utf-8 -*-\n# this file is released under public domain and you can use without limitations\n\n#########################################################################\n## This is a samples controller\n## - index is the default action of any application\n## - user is required for authentication and authorization\n## - download is for downloading files uploaded in the db (does streaming)\n## - call exposes all registered services (none by default)\n#########################################################################\n\ndef index():\n    """\n    example action using the internationalization operator T and flash\n    rendered by views/default/index.html or views/generic.html\n    """\n    response.flash = "Welcome to web2py!"\n    return dict(message=T(\'Hello World\'))\n\ndef user():\n    """\n    exposes:\n    http://..../[app]/default/user/login\n    http://..../[app]/default/user/logout\n    http://..../[app]/default/user/register\n    http://..../[app]/default/user/profile\n    http://..../[app]/default/user/retrieve_password\n    http://..../[app]/default/user/change_password\n    use @auth.requires_login()\n        @auth.requires_membership(\'group name\')\n        @auth.requires_permission(\'read\',\'table name\',record_id)\n    to decorate functions that need access control\n    """\n    return dict(form=auth())\n\n\ndef download():\n    """\n    allows downloading of uploaded files\n    http://..../[app]/default/download/[filename]\n    """\n    return response.download(request,db)\n\n\ndef call():\n    """\n    exposes services. for example:\n    http://..../[app]/default/call/jsonrpc\n    decorate with @services.jsonrpc the functions to expose\n    supports xml, json, xmlrpc, jsonrpc, amfrpc, rss, csv\n    """\n    return service()\n\n\n@auth.requires_signature()\ndef data():\n    """\n    http://..../[app]/default/data/tables\n    http://..../[app]/default/data/create/[table]\n    http://..../[app]/default/data/read/[table]/[id]\n    http://..../[app]/default/data/update/[table]/[id]\n    http://..../[app]/default/data/delete/[table]/[id]\n    http://..../[app]/default/data/select/[table]\n    http://..../[app]/default/data/search/[table]\n    but URLs must be signed, i.e. linked with\n      A(\'table\',_href=URL(\'data/tables\',user_signature=True))\n    or with the signed load operator\n      LOAD(\'default\',\'data.load\',args=\'tables\',ajax=True,user_signature=True)\n    """\n    return dict(form=crud())\n\nimport datetime\ndef index():\n\tsession.var=1\n\tform=SQLFORM.factory(\n\t\t\tField(\'From\',requires=IS_IN_DB(db,db.places.body)),\n\t\t\tField(\'To\',requires=IS_IN_DB(db,db.places.body)),\n\t\t\tField(\'d\',\'date\',label=\'Date of journey\',requires=IS_DATE()),\n\t\t\tField(\'Class\',requires=IS_IN_SET([\'Business\',\'Economy\'])),\n\t\t\tField(\'seats\',label=\'Number of passengers\',requires=IS_IN_SET((1,2,3,4,5,6,7,8,9,10))))\n\tif form.accepts(request.vars,session):\n\t\tif form.vars.From == form.vars.To:\n\t\t\tsession.flash="Source and Destination should not be the same!"\n\t\t\tredirect(URL(\'index\'))\n\t\tif form.vars.d<datetime.date.today():\n\t\t\tsession.flash="Enter a valid date!"\n\t\t\tredirect(URL(\'index\'))\n\t\telse:\n\t\t\tredirect(URL(\'search\',args=(request.vars.From,request.vars.To,request.vars.d,request.vars.seats,request.vars.Class)))\n\tsession.var=1\n\treturn dict(form=form)\n\ndef search():\n        session.date=request.args(2)\n        src=db((db.trips.src==request.args(0))&(db.trips.d==request.args(2))&(db.trips.cl==str(request.args(4)))).select()\n        dest=db((db.trips.dest==request.args(1))&(db.trips.cl==str(request.args(4)))).select()\n        \n        if len(src)==0 or len(dest)==0:\n       \t session.flash="No Trips Found! :( "\n         redirect(URL(\'index\'))\n\tlis=[]\n\tfor i in range(0,len(dest)):\n\t\tque=dest[i].name\n\t\tfor j in range(len(src)):\n\t\t\tif que==src[j].name:\n\t\t\t\tlis.append(que)\n\tif len(lis)==0:\n\t  \tsession.flash="No trips found!"\n\t  \tredirect(URL(\'index\'))\n\tseats=[]\n\tprice=[]\n\tlogo=[]\n\tdtime=[]\n\tatime=[]\n\tn=[]\n\tcompany=[]\n\tfor i in range(len(lis)):\n\t\tsend=[]\n\t\tsome=db((db.trips.name==lis[i])&(db.trips.src==request.args(0))).select()\n\t\tif len(some):\n\t\t\tsend.append(some[0].id)\n\t\t\tdesti=some[0].dest\n\t\t\tm=some[0].seats\n\t\t\tp=some[0].price\n\t\t\tdtime.append(some[0].departure)\n\t\t\twhile desti!=request.args(1):\n\t\t\t\tsome=db((db.trips.name==lis[i])&(db.trips.src==desti)).select()\n\t\t\t\tif len(some):\t\n\t\t\t\t\tdesti=some[0].dest\n\t\t\t\t\tif some[0].seats<m:\n\t\t\t\t\t\tm=some[0].seats\n\t\t\t\t\tp+=some[0].price\n\t\t\t\t\tsend.append(some[0].id)\n\t\t\t\telse:\n\t\t\t\t\tsession.flash="No trips Found!"\n\t\t\t\t\tredirect(URL(\'index\'))\n\t\t\tatime.append(some[0].arrival)\n\t\t\tn.append(send)\n\t\t\tlogo.append(some[0].logo)\n\t\t\tcompany.append(some[0].company)\n\t\t\tseats.append(m)\n\t\t\tprice.append(p)\n\t\telse:\n\t\t\tsession.flash="No trips found!"\n\t\t\tredirect(URL(\'index\'))\n\tl=len(lis)\n\tfor i in range(l):\n\t\tif seats[i]<int(request.args(3)):\n\t\t\tseats.remove(seats[i])\n\t\t\tprice.remove(price[i])\n\t\t\tlogo.remove(logo[i])\n\t\t\tatime.remove(atime[i])\n\t\t\tdtime.remove(dtime[i])\n\t\t\tlis.remove(lis[i])\n\tnew=[]\n\tfor i in n:\n\t\tst=""\n\t\tfor j in i:\n\t\t\tst+=str(j)\n\t\t\tst+=\'_\'\n\t\tnew.append(st[0:-1])\n\treturn dict(lis=lis,seats=seats,new=new,price=price,dtime=dtime,atime=atime,logo=logo,company=company)\n\nimport time\n@auth.requires_login()\ndef confirm():\n\tprint session.date\n\treturn dict()\t\n\n\nfrom gluon.tools import Mail\nmail = Mail()\nmail.settings.server = \'smtp.gmail.com:587\'\nmail.settings.sender = \'Traveller\\\'s paradise\'\nmail.settings.login = \'ayushkhandelwal115@gmail.com:ayush115\'\ndef book():\n\tn=request.vars.send\n\tn=request.vars.send.split(\'_\')\n\tred=db((db.trips.name==request.vars.lis)&(db.trips.cl==request.vars.cl)).select()\n\tfor i in range(len(n)):\n\t\tseats=db(db.trips.id==n[i]).select()\n\t\tseat=seats[0].seats\n\t\tdb(db.trips.id==n[i]).update(seats=seat-int(request.vars.seats))\n\tdb.flight_bookings.insert(user_id=auth.user.id,num=request.vars.seats,d=session.date,arrival=request.vars.atime,depart=request.vars.dtime,lis=request.vars.send,price=request.vars.price,booked_in=request.vars.lis,src=request.vars.src,dest=request.vars.dest,cl=request.vars.cl)\n\temail=auth.user.email\n\tmail.send(to=[email],\n\t\t\tsubject=\'Ticket booked!\',\n\t\t\tmessage=\'Flight id :\'+request.vars.lis+\'\\nDeparture time : \'+request.vars.dtime+\'\\nArrival time : \'+request.vars.atime+\'\\nNumber of seats : \'+request.vars.seats+\'\\n\')\n\tsession.flash="Your ticket has been booked!"\n\tredirect(URL(\'index\'))\n\ndef bus_booking():\n\tsession.var=3\t\n\tform=SQLFORM.factory(\n\t\t\tField(\'From\',requires=IS_IN_DB(db,db.places.body)),\n\t\t\tField(\'To\',requires=IS_IN_DB(db,db.places.body)),\n\t\t\tField(\'d\',\'date\',label=\'Date of journey\',requires=IS_DATE()),\n\t\t\tField(\'seats\',label=\'Number of passengers\',requires=IS_IN_SET((1,2,3,4,5,6,7,8,9,10))))\n\tif form.accepts(request.vars,session):\n\t\tif form.vars.From == form.vars.To:\n\t\t\tsession.flash="Source and Destination should not be the same!"\n\t\t\tredirect(URL(\'bus_booking\'))\n\t\tif form.vars.d<datetime.date.today():\n\t\t\tsession.flash="Enter a valid date!"\n\t\t\tredirect(URL(\'bus_booking\'))\n\t\telse:\n\t\t\tredirect(URL(\'bus_result\',args=(request.vars.From,request.vars.To,request.vars.d,request.vars.seats)))  \n\treturn dict(form=form)\n\ndef bus_result():\n\tsession.date=request.args(2)\n\tsrc=db((db.bus_trips.src==request.args(0))&(db.bus_trips.d==request.args(2))&(db.bus_trips.seats>int(request.args(3)))).select()\n\tdest=db((db.bus_trips.dest==request.args(1))&(db.bus_trips.seats>int(request.args(3)))).select()\n    \tif len(src)==0 or len(dest)==0:\n       \t \tsession.flash="No Trips Found! :( "\n        \tredirect(URL(\'bus_booking\'))\n\tlis=[]\n\tfor i in range(0,len(dest)):\n\t\tque=dest[i].name\n\t\tfor j in range(len(src)):\n\t\t\tif que==src[j].name:\n\t\t\t\tlis.append(que)\n\tif len(lis)==0:\n\t  \tsession.flash="No trips found!"\n\t  \tredirect(URL(\'bus_booking\'))\n\tseats=[]\n\tprice=[]\n\tlogo=[]\n\tdtime=[]\n\tatime=[]\n\tn=[]\n\tcompany=[]\n\tfor i in range(len(lis)):\n\t\tsend=[]\n\t\tsome=db((db.bus_trips.name==lis[i])&(db.bus_trips.src==request.args(0))).select()\n\t\tif len(some):\n\t\t\tsend.append(some[0].id)\n\t\t\tdesti=some[0].dest\n\t\t\tm=some[0].seats\n\t\t\tp=some[0].price\n\t\t\tdtime.append(some[0].departure)\n\t\t\twhile desti!=request.args(1):\n\t\t\t\tsome=db((db.bus_trips.name==lis[i])&(db.bus_trips.src==desti)).select()\n\t\t\t\tif len(some):\t\n\t\t\t\t\tdesti=some[0].dest\n\t\t\t\t\tif some[0].seats<m:\n\t\t\t\t\t\tm=some[0].seats\n\t\t\t\t\tp+=some[0].price\n\t\t\t\t\tsend.append(some[0].id)\n\t\t\t\telse:\n\t\t\t\t\tsession.flash="No trips Found!"\n\t\t\t\t\tredirect(URL(\'index\'))\n\t\t\tatime.append(some[0].arrival)\n\t\t\tn.append(send)\n\t\t\tlogo.append(some[0].logo)\n\t\t\tcompany.append(some[0].company)\n\t\t\tseats.append(m)\n\t\t\tprice.append(p)\n\t\telse:\n\t\t\tsession.flash="No trips found!"\n\t\t\tredirect(URL(\'bus_booking\'))\n\tnew=[]\n\tfor i in n:\n\t\tst=""\n\t\tfor j in i:\n\t\t\tst+=str(j)\n\t\t\tst+=\'_\'\n\t\tnew.append(st[0:-1])\n\treturn dict(lis=lis,seats=seats,new=new,price=price,dtime=dtime,atime=atime,logo=logo,company=company)\n\ndef bus_confirm():\n\tprint session.date\n\treturn dict()\t\n\n\nfrom gluon.tools import Mail\nmail = Mail()\nmail.settings.server = \'smtp.gmail.com:587\'\nmail.settings.sender = \'Traveller\\\'s paradise\'\nmail.settings.login = \'ayushkhandelwal115@gmail.com:ayush115\'\ndef bus_book():\n\tn=request.vars.send\n\tn=request.vars.send.split(\'_\')\n\tred=db(db.bus_trips.name==request.vars.lis).select()\n\tfor i in range(len(n)):\n\t\tseats=db(db.bus_trips.id==n[i]).select()\n\t\tseat=seats[0].seats\n\t\tdb(db.bus_trips.id==n[i]).update(seats=seat-int(request.vars.seats))\n\tdb.bus_bookings.insert(user_id=auth.user.id,num=request.vars.seats,d=session.date,arrival=request.vars.atime,depart=request.vars.dtime,lis=request.vars.send,price=request.vars.price,booked_in=request.vars.lis,src=request.vars.src,dest=request.vars.dest)\n\temail=auth.user.email\n\tmail.send(to=[email],\n\t\t\tsubject=\'Ticket booked!\',\n\t\t\tmessage=\'Bus id :\'+request.vars.lis+\'\\nDeparture time : \'+request.vars.dtime+\'\\nArrival time : \'+request.vars.atime+\'\\nNumber of seats : \'+request.vars.seats+\'\\n\')\n\tsession.flash="Your ticket has been booked!"\n\tredirect(URL(\'index\'))\n\n@auth.requires_login()\t\ndef manage():\n\tif (auth.user.Member_Type!=\'admin\'):\n\t\tredirect (URL(\'index\'))\n\t\tsession.flash(\'Only the site adin can access this page!\')\n\tform=SQLFORM(db.trips)\n\tif form.accepts(request.vars,session):\n\t\tsession.flash="something"\n\t\tredirect(URL(\'manage\'))\n\tform2=SQLFORM(db.hotels)\n\tif (form.accepts(request.vars,session)):\n\t\tsession.flash="Hotel added!!Good Work"\n\t\tredirect(URL(\'manage\'))\n\tform3=SQLFORM(db.places)\n\tif (form.accepts(request.vars,session)):\n\t\tsession.flash="New Place added in the database!(y)"\n\t\tredirect(URL(\'manage\'))\n\treturn dict(form=form,form2=form2,form3=form3)\n\nimport urllib\nimport json\nfrom pprint import pprint\nimport datetime\ndef hotel_search():\n\tsession.var=4\n\tform=SQLFORM.factory(\n\t\tField(\'city\',requires=IS_IN_DB(db,db.places.body)),\n\t\tField(\'arrivalDate\',\'date\'),\n\t\tField(\'departDate\',\'date\'),\n\t\tField(\'rooms\',\'integer\',requires=IS_IN_SET((1,2,3,4,5))))\n\tif form.accepts(request.vars,session):\n\t\tarrivalDate=form.vars.arrivalDate\n\t\tdepartDate=form.vars.departDate\n#\t\tarrivalDate=str(form.vars.arrivalDate.strftime("%m/%d/%Y"))\n#\t\tdepartDate=str(form.vars.departDate.strftime("%m/%d/%Y"))\n\t\tredirect(URL(r=request,f=\'hotel\',args=(form.vars.city,form.vars.arrivalDate,form.vars.departDate,form.vars.rooms)))\n\treturn dict(form=form)\n\n\nimport re\n\nTAG_RE = re.compile(r\'<[^>]+>\')\n\ndef remove_tags(text):\n\treturn TAG_RE.sub(\'\', text)\n\n\ndef hotel_desc():\n\tsession.var=4\n\tarrivalDate=request.args(1).split(\'-\')\n\tdepartDate=request.args(2).split(\'-\')\n\tadate=arrivalDate[1]+\'/\'+arrivalDate[2]+\'/\'+arrivalDate[0] \n\tddate=departDate[1]+\'/\'+departDate[2]+\'/\'+departDate[0] \n\trooms=""\n\tfor i in range(0,int(request.args(3))):\n\t\trooms+="&room"+str(i+1)+"=2"\n\tlink="http://api.ean.com/ean-services/rs/hotel/v3/avail?&cid=55505&apiKey=nmtccjsdemu6hkg73wcct44t&locale=en_US&currencyCode=INR&hotelId="+request.args(0)+"&arrivalDate="+adate+"&departureDate="+ddate+"&includeDetails=true&includeRoomImages=true"+rooms\n\tlink2="http://api.ean.com/ean-services/rs/hotel/v3/info?cid=55505&apiKey=nmtccjsdemu6hkg73wcct44t&locale=en_US&currencyCode=INR&xml=<HotelInformationRequest><hotelId>"+request.args(0)+"</hotelId><options>0</options></HotelInformationRequest>"\n\ta=urllib.urlopen(link)\n\tdata=json.loads(a.read())\n\ta=urllib.urlopen(link2)\n\tdata2=json.loads(a.read())\n\thotel=data[\'HotelRoomAvailabilityResponse\']\n\tli=data[\'HotelRoomAvailabilityResponse\'][\'HotelRoomResponse\']\n\tdesc=data2[\'HotelInformationResponse\'][\'HotelDetails\'][\'propertyDescription\']\n\trooms=data2[\'HotelInformationResponse\'][\'RoomTypes\']\n\treturn dict(li=li,hotel=hotel,rooms=rooms,desc=desc)\t\n\n@auth.requires_login()\ndef profile():\n\trec=db(auth.user.id==db.auth_user.id).select()\n\tform=crud.update(db.auth_user,auth.user.id)\n\tcrud.settings.update_deletable = False\n\tif (form.process().accepted):\n\t\tredirect(URL(\'profile\'))\n\treturn locals()\n\n@auth.requires_login()\ndef viewbookings():\n        rec=db(db.auth_user.id==auth.user.id).select(db.hotels.ALL,orderby=db.hotels.checkin)\n        flight=db(db.auth_user.id==auth.user.id).select(db.flight_bookings.ALL,orderby=db.flight_bookings.d)\n        return locals()\n\ndef hotel():\n\tsession.var=4\n\trooms=""\n\tadate=""\n\tddate=""\n\tfor i in range(0,int(request.args(3))):\n\t\trooms+="&room"+str(i+1)+"=2"\n\tarrivalDate=request.args(1).split(\'-\')\n\tdepartDate=request.args(2).split(\'-\')\n\tadate=arrivalDate[1]+\'/\'+arrivalDate[2]+\'/\'+arrivalDate[0] \n\tddate=departDate[1]+\'/\'+departDate[2]+\'/\'+departDate[0] \n\tlink="http://api.ean.com/ean-services/rs/hotel/v3/list?cid=55505&apiKey=nmtccjsdemu6hkg73wcct44t&locale=en_US&currencyCode=INR&city="+request.args(0)+"&countryCode=IN&supplierCacheTolerance=MED&arrivalDate="+adate+"&departureDate="+ddate+rooms+"&numberOfResults=10&supplierCacheTolerance=MED_ENHANCED"\n\ta=urllib.urlopen(link)\n\tdata=json.loads(a.read())\n\tli=data["HotelListResponse"]["HotelList"]["HotelSummary"]\n\treturn dict(li=li,rooms=rooms)\n\ndef hotel_confirm():\n\tsession.var=4\n\tarrivalDate=request.args(1).split(\'-\')\n\tdepartDate=request.args(2).split(\'-\')\n\tadate=arrivalDate[1]+\'/\'+arrivalDate[2]+\'/\'+arrivalDate[0] \n\tddate=departDate[1]+\'/\'+departDate[2]+\'/\'+departDate[0] \n\trooms=""\n\tfor i in range(0,int(request.args(3))):\n\t\trooms+="&room"+str(i+1)+"=2"\n\tlink="http://api.ean.com/ean-services/rs/hotel/v3/avail?&cid=55505&apiKey=nmtccjsdemu6hkg73wcct44t&locale=en_US&currencyCode=INR&hotelId="+request.args(0)+"&arrivalDate="+adate+"&departureDate="+ddate+"&includeDetails=true&includeRoomImages=true"+rooms\n\ta=urllib.urlopen(link)\n\tdata=json.loads(a.read())\n\thotel=data[\'HotelRoomAvailabilityResponse\']\n\tli=hotel[\'HotelRoomResponse\']\n\tfin=[]\n\tfor i in range(len(li)):\n\t\tif str(li[i][\'roomTypeCode\'])==str(request.args(4)):\n\t\t\tfin=li[i]\n\t\t\tbreak\n\treturn dict(hotel=hotel,fin=fin)\n\n@auth.requires_login()\ndef booking_done():\n\tsession.var=4\n\tdb.hotels.insert(user_id=str(auth.user.id),checkin=request.args(1),checkout=request.args(2),hotel_code=request.args(0),room_code=request.args(4),rooms=request.args(3))\n\tredirect(URL(\'index\'))\n\treturn dict()\n\ndef add_flight():\n\tcities=db(db.places.id>0).select(db.places.body)\n\treturn dict(cities=cities)\n\ndef add_new():\n\ta=type("")\n\tsrc=request.vars.src\n\tdest=request.vars.dest\n\tprice=request.vars.price\n\tatime=request.vars.arrival\n\tdtime=request.vars.depart\n\tday=request.vars.day\n\ttmp=[]\n\tif type(src)==a:\n\t\tprint \'yes\'\n\t\ttmp.append(src)\n\t\tsrc=tmp\n\t\ttmp=[]\n\t\ttmp.append(dest)\n\t\tdest=tmp\n\t\ttmp=[]\n\t\ttmp.append(price)\n\t\tprice=tmp\n\t\ttmp=[]\n\t\ttmp.append(atime)\n\t\tatime=tmp\n\t\ttmp=[]\n\t\ttmp.append(dtime)\n\t\tdtime=tmp\n\t\ttmp=[]\n\t\ttmp.append(day)\n\t\tday=tmp\n\tprint src\n\tprint dest\n\tprint atime\n\tprint dtime\n\tseatseconomy=int(request.vars.seatseconomy)\n\tseatsbusiness=int(request.vars.seatsbusiness)\n\tdate=datetime.datetime.strptime(request.vars.d,"%Y-%m-%d")\n\tday_len=len(day)\n\tto=datetime.date.today()\n\tdelta=datetime.timedelta(days=1)\n\twhile(day_len):\n\t\tif to.weekday() in day:\n\t\t\tadd_date.append(to)\n\t\tto+=delta\n\t\tday_len-=1\n\tadd_date=[]\n\tif seatseconomy:\n\t  \ttmp=add_date\n\t  \tfor k in range(52):\n\t  \t\tfor j in tmp:\n\t\t\t\tfor i in range(len(src)):\n\t\t\t\t\tdb.trips.insert(src=src[i],dest=dest[i],d=date,price=price[i],departure=dtime[i],arrival=atime[i],cl=\'Economy\',seats=seatseconomy,company=request.vars.company,name=request.vars.name)\n\t\t\tfor j in tmp:\n\t\t\t\ttmp[j]+=datetime.timedelta(days=7)\n\tif seatsbusiness:\n\t\tfor k in range(52):\n\t\t\ttmp=add_date\n\t\t\tfor j in tmp:\n\t\t\t\tfor i in range(len(src)):\n\t\t\t\t\tdb.trips.insert(src=src[i],dest=dest[i],d=date,price=price[i],departure=dtime[i],arrival=atime[i],cl=\'Business\',seats=seatsbusiness,company=request.vars.company,name=request.vars.name)\n\t\t\tfor j in tmp:\n\t\t\t\ttmp[j]+=datetime.timedelta(days=7)\n\treturn dict()\ndef recent():\n        fl=db().select(db.flight_booking.ALL,orderby=~db.flight_booking.ALL)\n        ht=db().select(db.flight_booking.ALL,orderby=~db.flight_booking.ALL)\n        return locals()\n\nfrom random import randint\ndef advertisement():\n        fl=db().select(db.trips.ALL)\n        l=len(fl)\n        flnum=randint(0,l)\n        ht=db().select(db.trips.ALL)\n        lh=len(ht)\n        htnum=randint(0,lh)\n        return locals()\n\n\ndef dum():\n#       print "DADSDAS"\n        print "id=",\n        print int(request.args[1])\n        if (int(request.args[0])==1):\n                db(db.hotels.id==int(request.args[1])).delete()\n                email=auth.user.email\n\t        mail.send(to=[email],\n\t\t\t        subject=\'Hotel Cancellation\',\n\t\t\t        message=\'You have Cancelled your booking for the hotel\'+str(request.args[3])+\'which was booked from\'+str(request.args[1])+\'to\'+str(request.args[2])+\'. TheAmount after cutting the cancelation prices will be transfered to you.\' \n                        )\n        elif (int(request.args[0])==0):\n                q=db((db.flight_bookings.id==int(request.args[1]))).select()\n                a=q[0][\'lis\'].split(\'_\')\n                print a[0]+\'ds\'+a[1],\n                print len(a)\n                for i in range(len(a)):\n                        s= db(db.trips.id==int(a[i])).select(db.trips.seats)\n                        db(db.trips.id==int(a[i])).update(seats=s[0][\'seats\']+int(request.args[3]))\n                db(db.flight_bookings.id==int(request.args[1])).delete()\n                email=auth.user.email\n\t        mail.send(to=[email],\n\t\t\t        subject=\'Flight Cancellation\',\n\t\t\t        message=\'Your flight booking for \'+q[0][\'booked_in\']+\' from \'+q[0][\'src\']+\' to \'+q[0][\'dest\']+\' on \'+str(q[0][\'d\'])+\' has been cancelled.\'   \n                        )\n\n        redirect(URL(\'viewbookings\'))\n        \n        return locals()\n@auth.requires_login()\ndef profile():\n\trec=db(auth.user.id==db.auth_user.id).select()\n\tform=crud.update(db.auth_user,auth.user.id)\n\tcrud.settings.update_deletable = False\n\tif (form.process().accepted):\n\t\tredirect(URL(\'profile\'))\n\treturn locals()\n\n@auth.requires_login()\ndef flight_review():\n        form=SQLFORM(db.review)\n        form.vars.user_id=auth.user.id\n        if (form.process().accepted):\n                f=form.vars.id\n                rec=db(db.trips.name==form.vars.flight_name).select(db.trips.Rating)\n                count=db(db.review.flight_name==form.vars.flight_name).select()\n                c=float(len(count))\n                print c\n                x=(int(form.vars.rating)+(rec[0][\'Rating\']))\n                print x\n                if (c<=0):\n                        db((db.trips.name==form.vars.flight_name)).update(Rating=(rec[0][\'Rating\']+((int(form.vars.rating)))))\n                else:\n                        db((db.trips.name==form.vars.flight_name)).update(Rating=x)\n        return locals()\n        \n@auth.requires_login()\ndef viewbookings():\n        print auth.user.id\n        ctr1=0\n        ctr2=0\n        c1=0\n        c2=0\n        import datetime\n        d1=datetime.date.today()\n        rec=db(db.hotels.user_id==auth.user.id).select(db.hotels.ALL,orderby=db.hotels.checkin)\n        flag1=0\n        flag2=0\n        f1=0\n        f2=0\n        print len(rec),\n        print \'dad\'\n        print ctr1\n        for i in range(len(rec)):\n                if ((rec[i][\'checkin\']-d1)<datetime.timedelta(0)):\n                        ctr1=ctr1+1 \n                elif ((rec[i][\'checkin\']-d1)>=datetime.timedelta(0)):\n                        c1=c1+1\n        if (ctr1==0):\n                flag1=1\n        if (c1==0):\n                f1=1\n        print flag1\n        flight=db(db.flight_bookings.user_id==auth.user.id).select(db.flight_bookings.ALL,orderby=db.flight_bookings.d)\n        for i in range(len(flight)):\n                if ((flight[i][\'d\']-d1)<datetime.timedelta(0)):\n                        ctr2=ctr2+1 \n                if ((flight[i][\'d\']-d1)>=datetime.timedelta(0)):\n                        c2=c2+1\n        if (ctr2==0):\n                flag2=1\n        if (c2==0):\n                f2=1\n        return locals()\n\nimport re\nimport os\nimport bs4\nfrom bs4 import BeautifulSoup\nfrom mechanize import Browser\nbrowser=Browser()\nsoup=\'\'\ndef railway():\n\tform=SQLFORM.factory(\n\t\t\tField(\'From\',requires=IS_IN_DB(db,db.rail.body)),\n\t\t\tField(\'To\',requires=IS_IN_DB(db,db.rail.body)),\n\t\t\tField(\'d\',\'date\',label=\'Date of journey\',requires=IS_DATE()))\n        if form.accepts(request.vars,session):\n            if form.vars.From == form.vars.To:\n                session.flash="Source and Destination should not be the same!"\n                redirect(URL(\'index\'))\n            if form.vars.d<datetime.date.today():\n                session.flash="Enter a valid date!"\n                redirect(URL(\'index\'))\n            else:\n                redirect(URL(r=request,f=\'rail\',args=(form.vars.From,form.vars.To,form.vars.d)))\n        return dict(form=form)\ndef rail():\n        browser.open("http://www.indianrail.gov.in/know_Station_Code.html")\n        browser.select_form(nr=0)\n        browser.set_all_readonly(False)\n        if request.args(0) == \'New_Delhi\':\n                browser[\'lccp_src_stncode_dis\']=\'NDLS\'\n                browser[\'lccp_src_stncode\']=\'NDLS\'\n        elif request.args(0) == \'Mumbai\':\n                browser[\'lccp_src_stncode_dis\']=\'BCT\'\n                browser[\'lccp_src_stncode\']=\'BCT\'\n        elif request.args(0) == \'Chandigarh\':\n                    browser[\'lccp_src_stncode_dis\']=\'CDG\'\n                    browser[\'lccp_src_stncode\']=\'CDG\'\n        elif request.args(0) == \'Indore\':\n                browser[\'lccp_src_stncode_dis\']=\'INDB\'\n                browser[\'lccp_src_stncode\']=\'INDB\'\n        elif request.args(0) == \'Solan\':\n                browser[\'lccp_src_stncode_dis\']=\'SQL\'\n                browser[\'lccp_src_stncode\']=\'SQL\'\n        elif request.args(0) == \'Hyderabad\':\n                    browser[\'lccp_src_stncode_dis\']=\'HYB\'\n                    browser[\'lccp_src_stncode\']=\'HYB\'\n        elif request.args(0) == \'Vasco_da_gama\':\n                browser[\'lccp_src_stncode_dis\']=\'VSG\'\n                browser[\'lccp_src_stncode\']=\'VSG\'\n        elif request.args(0) == \'Pune\':\n                    browser[\'lccp_src_stncode_dis\']=\'PUNE\'\n                    browser[\'lccp_src_stncode\']=\'PUNE\'\n        elif request.args(0) == \'Bangalore\':\n                    browser[\'lccp_src_stncode_dis\']=\'SBC\'\n                    browser[\'lccp_src_stncode\']=\'SBC\'\n        if request.args(1) == \'New_Delhi\':\n                    browser[\'lccp_dstn_stncode_dis\']=\'NDLS\'\n                    browser[\'lccp_dstn_stncode\']=\'NDLS\'\n        elif request.args(1) == \'Mumbai\':\n                    browser[\'lccp_dstn_stncode_dis\']=\'BCT\'\n                    browser[\'lccp_dstn_stncode\']=\'BCT\'\n        elif request.args(1) == \'Chandigarh\':\n                    browser[\'lccp_dstn_stncode_dis\']=\'CDG\'\n                    browser[\'lccp_dstn_stncode\']=\'CDG\'\n        elif request.args(1) == \'Indore\':\n                    browser[\'lccp_dstn_stncode_dis\']=\'INDB\'\n                    browser[\'lccp_dstn_stncode\']=\'INDB\'\n        elif request.args(1) == \'Solan\':\n                    browser[\'lccp_dstn_stncode_dis\']=\'SQL\'\n                    browser[\'lccp_dstn_stncode\']=\'SQL\'\n        elif request.args(1) == \'Hyderabad\':\n            browser[\'lccp_dstn_stncode_dis\']=\'HYB\'\n            browser[\'lccp_dstn_stncode\']=\'HYB\'\n        elif request.args(1) == \'Vasco_da_gama\':\n            browser[\'lccp_dstn_stncode_dis\']=\'VSG\'\n            browser[\'lccp_dstn_stncode\']=\'VSG\'\n        elif request.args(1) == \'Pune\':\n                    browser[\'lccp_dstn_stncode_dis\']=\'PUNE\'\n                    browser[\'lccp_dstn_stncode\']=\'PUNE\'\n        elif request.args(1) == \'Bangalore\':\n                    browser[\'lccp_dstn_stncode_dis\']=\'SBC\'\n                    browser[\'lccp_dstn_stncode\']=\'SBC\'\n                    \n        browser[\'lccp_classopt\']=[\'ZZ\']\n        if request.args(2) == \'2013-12-02\':\n                browser[\'lccp_day\']=\'2\'\n                browser[\'lccp_month\']=\'12\'\n        elif request.args(2) == \'2013-12-03\':\n                browser[\'lccp_day\']=\'3\'\n                browser[\'lccp_month\']=\'12\'\n        elif request.args(2) == \'2013-12-04\':\n                browser[\'lccp_day\']=\'4\'\n                browser[\'lccp_month\']=\'12\'\n        elif request.args(2) == \'2013-12-05\':\n                browser[\'lccp_day\']=\'5\'\n                browser[\'lccp_month\']=\'12\'\n        elif request.args(2) == \'2013-12-06\':\n                browser[\'lccp_day\']=\'6\'\n                browser[\'lccp_month\']=\'12\'\n        elif request.args(2) == \'2013-12-07\':  \n                browser[\'lccp_day\']=\'7\'\n                browser[\'lccp_month\']=\'12\'\n        elif request.args(2) == \'2013-12-08\':\n                browser[\'lccp_day\']=\'8\'\n                browser[\'lccp_month\']=\'12\'\n        response=browser.submit()\n        content=response.read()\n       # print content\n        f=\'\'\n        trains=re.findall(\'<INPUT TYPE=.*>.*</TR>\',content,re.DOTALL)\n        for f in trains:\n              f=f.replace(\'lccp_class2\',\'lccp_class1\')\n              f=f.replace(\'lccp_class3\',\'lccp_class1\')\n              f=f.replace(\'lccp_class4\',\'lccp_class1\')\n              f=f.replace(\'lccp_class5\',\'lccp_class1\')\n              f=f.replace(\'lccp_class6\',\'lccp_class1\')\n        soup=BeautifulSoup(f)\n        soup=re.sub(\'<input name=.*?/>\',\'\xe2\x9c\x94\',str(soup),re.DOTALL)\n        soup=re.sub(\'<input checked=.*?/>\',\'\xe2\x9c\x94\',str(soup),re.DOTALL)\n        soup=re.sub(\'<input name=.*?/>\',\'\xe2\x9c\x94\',str(soup),re.DOTALL)\n        soup=re.sub(\'<a href=.*?>\',\'\',str(soup),re.DOTALL)\n        a=re.findall(\'<td>\xe2\x9c\x94\\d+</td>\',soup)\n        q=[]\n        for i in a:\n            q.append(eval(((re.findall(\'\\d+\',i))[0])))\n        #soup=re.sub(\'\xe2\x9c\x94[^\\\\n]\',\' \',str(soup))\n        soup=BeautifulSoup(soup)\n        soup=soup.table\n        print str(soup)+\'ds\'\n        if str(soup)=="None":\n            print "a"\n            redirect(URL(\'railway\'))\n            session.flash="no trains found"\n#\tsoup=XML(soup)\n        form=SQLFORM.factory(\n                Field(\'t\',label=\'Train Schedule\',requires=IS_IN_SET(q)))\n        if form.accepts(request.vars,session):\n                        redirect(URL(r=request,f=\'route\',args=(form.vars.t)))\n        return dict(soup=soup,q=q,form=form)\n\n    \ndef route():\n        br=Browser()\n        br.open("http://www.indianrail.gov.in/inet_trn_num.html")\n        br.select_form(nr=0)\n        br.set_all_readonly(False)\n        br[\'lccp_trnname\']=str(request.args(0))\n        response=br.submit()\n        content=response.read()\n        route=re.findall(\'<TR class="heading_table_top">.*</TABLE>\',content,re.DOTALL)\n        for f in route:\n            print f\n        soup=BeautifulSoup(f)\n        soup=soup.table\n        return dict(soup=soup)\n\nresponse._vars=response._caller(rail)\n'
p7
sS'snapshot'
p8
(dp9
S'exception'
p10
(dp11
S'__module__'
p12
S"'urllib2'"
p13
sS'__getslice__'
p14
S"<method-wrapper '__getslice__' of URLError object>"
p15
sS'__str__'
p16
S"<bound method URLError.__str__ of URLError(error(111, 'Connection refused'),)>"
p17
sS'__reduce__'
p18
S'<built-in method __reduce__ of URLError object>'
p19
sS'__dict__'
p20
S"{'reason': error(111, 'Connection refused')}"
p21
sS'__sizeof__'
p22
S'<built-in method __sizeof__ of URLError object>'
p23
sS'__weakref__'
p24
S'None'
p25
sS'__init__'
p26
S"<bound method URLError.__init__ of URLError(error(111, 'Connection refused'),)>"
p27
sS'__setattr__'
p28
S"<method-wrapper '__setattr__' of URLError object>"
p29
sS'__reduce_ex__'
p30
S'<built-in method __reduce_ex__ of URLError object>'
p31
sS'__new__'
p32
S'<built-in method __new__ of type object>'
p33
sS'errno'
p34
S'None'
p35
sS'__format__'
p36
S'<built-in method __format__ of URLError object>'
p37
sS'__class__'
p38
S"<class 'urllib2.URLError'>"
p39
sS'filename'
p40
S'None'
p41
sS'__doc__'
p42
S'None'
p43
sS'__getitem__'
p44
S"<method-wrapper '__getitem__' of URLError object>"
p45
sS'__setstate__'
p46
S'<built-in method __setstate__ of URLError object>'
p47
sS'__getattribute__'
p48
S"<method-wrapper '__getattribute__' of URLError object>"
p49
sS'args'
p50
S"(error(111, 'Connection refused'),)"
p51
sS'reason'
p52
S"error(111, 'Connection refused')"
p53
sS'__subclasshook__'
p54
S'<built-in method __subclasshook__ of type object>'
p55
sS'__unicode__'
p56
S'<built-in method __unicode__ of URLError object>'
p57
sS'strerror'
p58
S'None'
p59
sS'__delattr__'
p60
S"<method-wrapper '__delattr__' of URLError object>"
p61
sS'__repr__'
p62
S"<method-wrapper '__repr__' of URLError object>"
p63
sS'__hash__'
p64
S"<method-wrapper '__hash__' of URLError object>"
p65
ssS'evalue'
p66
S'<urlopen error [Errno 111] Connection refused>'
p67
sS'request'
p68
cgluon.html
XML_unpickle
p69
(S's\xd4X\x00\x00<div><table><tr><td style="font-weight:bold;vertical-align:top">ajax</td><td valign="top">:</td><td><div>False</div></td></tr><tr><td style="font-weight:bold;vertical-align:top">application</td><td valign="top">:</td><td><div>UIpart</div></td></tr><tr><td style="font-weight:bold;vertical-align:top">args</td><td valign="top">:</td><td><div><table><tr><td><div>Bangalore</div></td></tr><tr><td><div>Hyderabad</div></td></tr><tr><td><div>2013-12-03</div></td></tr></table></div></td></tr><tr><td style="font-weight:bold;vertical-align:top">body</td><td valign="top">:</td><td><div>&lt;cStringIO.StringO object at 0x7f86e0367b58&gt;</div></td></tr><tr><td style="font-weight:bold;vertical-align:top">cid</td><td valign="top">:</td><td><div>None</div></td></tr><tr><td style="font-weight:bold;vertical-align:top">client</td><td valign="top">:</td><td><div>127.0.0.1</div></td></tr><tr><td style="font-weight:bold;vertical-align:top">controller</td><td valign="top">:</td><td><div>default</div></td></tr><tr><td style="font-weight:bold;vertical-align:top">cookies</td><td valign="top">:</td><td><div><table><tr><td style="font-weight:bold;vertical-align:top">session_id_30thdec</td><td valign="top">:</td><td><div>127.0.0.1-39ca0169-672f-4999-8e78-40e5e48836d9<table><tr><td style="font-weight:bold;vertical-align:top">comment</td><td valign="top">:</td><td><div></div></td></tr><tr><td style="font-weight:bold;vertical-align:top">domain</td><td valign="top">:</td><td><div></div></td></tr><tr><td style="font-weight:bold;vertical-align:top">expires</td><td valign="top">:</td><td><div></div></td></tr><tr><td style="font-weight:bold;vertical-align:top">httponly</td><td valign="top">:</td><td><div></div></td></tr><tr><td style="font-weight:bold;vertical-align:top">max-age</td><td valign="top">:</td><td><div></div></td></tr><tr><td style="font-weight:bold;vertical-align:top">path</td><td valign="top">:</td><td><div></div></td></tr><tr><td style="font-weight:bold;vertical-align:top">secure</td><td valign="top">:</td><td><div></div></td></tr><tr><td style="font-weight:bold;vertical-align:top">version</td><td valign="top">:</td><td><div></div></td></tr></table></div></td></tr><tr><td style="font-weight:bold;vertical-align:top">session_id_admin</td><td valign="top">:</td><td><div>127.0.0.1-10eabf41-bd93-4388-a4ce-ecd684850f7b<table><tr><td style="font-weight:bold;vertical-align:top">comment</td><td valign="top">:</td><td><div></div></td></tr><tr><td style="font-weight:bold;vertical-align:top">domain</td><td valign="top">:</td><td><div></div></td></tr><tr><td style="font-weight:bold;vertical-align:top">expires</td><td valign="top">:</td><td><div></div></td></tr><tr><td style="font-weight:bold;vertical-align:top">httponly</td><td valign="top">:</td><td><div></div></td></tr><tr><td style="font-weight:bold;vertical-align:top">max-age</td><td valign="top">:</td><td><div></div></td></tr><tr><td style="font-weight:bold;vertical-align:top">path</td><td valign="top">:</td><td><div></div></td></tr><tr><td style="font-weight:bold;vertical-align:top">secure</td><td valign="top">:</td><td><div></div></td></tr><tr><td style="font-weight:bold;vertical-align:top">version</td><td valign="top">:</td><td><div></div></td></tr></table></div></td></tr><tr><td style="font-weight:bold;vertical-align:top">session_id_uipart</td><td valign="top">:</td><td><div>127.0.0.1-2c0df2d9-a92c-47d1-b52a-379be039e64f<table><tr><td style="font-weight:bold;vertical-align:top">comment</td><td valign="top">:</td><td><div></div></td></tr><tr><td style="font-weight:bold;vertical-align:top">domain</td><td valign="top">:</td><td><div></div></td></tr><tr><td style="font-weight:bold;vertical-align:top">expires</td><td valign="top">:</td><td><div></div></td></tr><tr><td style="font-weight:bold;vertical-align:top">httponly</td><td valign="top">:</td><td><div></div></td></tr><tr><td style="font-weight:bold;vertical-align:top">max-age</td><td valign="top">:</td><td><div></div></td></tr><tr><td style="font-weight:bold;vertical-align:top">path</td><td valign="top">:</td><td><div></div></td></tr><tr><td style="font-weight:bold;vertical-align:top">secure</td><td valign="top">:</td><td><div></div></td></tr><tr><td style="font-weight:bold;vertical-align:top">version</td><td valign="top">:</td><td><div></div></td></tr></table></div></td></tr><tr><td style="font-weight:bold;vertical-align:top">session_id_welcome</td><td valign="top">:</td><td><div>127.0.0.1-c3a390a6-71e0-41f8-aec2-ba827b039fbe<table><tr><td style="font-weight:bold;vertical-align:top">comment</td><td valign="top">:</td><td><div></div></td></tr><tr><td style="font-weight:bold;vertical-align:top">domain</td><td valign="top">:</td><td><div></div></td></tr><tr><td style="font-weight:bold;vertical-align:top">expires</td><td valign="top">:</td><td><div></div></td></tr><tr><td style="font-weight:bold;vertical-align:top">httponly</td><td valign="top">:</td><td><div></div></td></tr><tr><td style="font-weight:bold;vertical-align:top">max-age</td><td valign="top">:</td><td><div></div></td></tr><tr><td style="font-weight:bold;vertical-align:top">path</td><td valign="top">:</td><td><div></div></td></tr><tr><td style="font-weight:bold;vertical-align:top">secure</td><td valign="top">:</td><td><div></div></td></tr><tr><td style="font-weight:bold;vertical-align:top">version</td><td valign="top">:</td><td><div></div></td></tr></table></div></td></tr></table></div></td></tr><tr><td style="font-weight:bold;vertical-align:top">env</td><td valign="top">:</td><td><div><table><tr><td style="font-weight:bold;vertical-align:top">app_folders</td><td valign="top">:</td><td><div>set([&#x27;/home/mohanty/web2py/applications/welcome/&#x27;, &#x27;/home/mohanty/web2py/applications/30thdec/&#x27;, &#x27;/home/mohanty/web2py/applications/admin/&#x27;, &#x27;/home/mohanty/web2py/applications/UIpart/&#x27;])</div></td></tr><tr><td style="font-weight:bold;vertical-align:top">applications_parent</td><td valign="top">:</td><td><div>/home/mohanty/web2py</div></td></tr><tr><td style="font-weight:bold;vertical-align:top">cmd_args</td><td valign="top">:</td><td><div><table></table></div></td></tr><tr><td style="font-weight:bold;vertical-align:top">cmd_options</td><td valign="top">:</td><td><div>&lt;Values at 0x1b24560: {&#x27;verbose&#x27;: False, &#x27;ip&#x27;: &#x27;127.0.0.1&#x27;, &#x27;with_scheduler&#x27;: False, &#x27;ips&#x27;: [&#x27;127.0.1.1&#x27;], &#x27;shutdown_timeout&#x27;: 5, &#x27;taskbar&#x27;: False, &#x27;with_coverage&#x27;: False, &#x27;port&#x27;: 8000, &#x27;maxthreads&#x27;: None, &#x27;softcron&#x27;: False, &#x27;server_name&#x27;: &#x27;mohanty-Inspiron-N5110&#x27;, &#x27;bpython&#x27;: False, &#x27;nogui&#x27;: False, &#x27;pid_filename&#x27;: &#x27;httpserver.pid&#x27;, &#x27;extcron&#x27;: False, &#x27;runcron&#x27;: False, &#x27;run_system_tests&#x27;: False, &#x27;test&#x27;: None, &#x27;folder&#x27;: &#x27;/home/mohanty/web2py&#x27;, &#x27;config&#x27;: &#x27;&#x27;, &#x27;minthreads&#x27;: None, &#x27;winservice&#x27;: &#x27;&#x27;, &#x27;shell&#x27;: None, &#x27;run&#x27;: &#x27;&#x27;, &#x27;log_filename&#x27;: &#x27;httpserver.log&#x27;, &#x27;debuglevel&#x27;: 30, &#x27;args&#x27;: [&#x27;&#x27;], &#x27;socket_timeout&#x27;: 5, &#x27;ssl_ca_certificate&#x27;: None, &#x27;scheduler&#x27;: None, &#x27;profiler_filename&#x27;: None, &#x27;ssl_private_key&#x27;: &#x27;&#x27;, &#x27;scheduler_groups&#x27;: None, &#x27;password&#x27;: &#x27;&lt;ask&gt;&#x27;, &#x27;request_queue_size&#x27;: 5, &#x27;ssl_certificate&#x27;: &#x27;&#x27;, &#x27;cronjob&#x27;: False, &#x27;numthreads&#x27;: None, &#x27;quiet&#x27;: False, &#x27;interfaces&#x27;: None, &#x27;import_models&#x27;: False, &#x27;timeout&#x27;: 10, &#x27;plain&#x27;: False, &#x27;nobanner&#x27;: False}&gt;</div></td></tr><tr><td style="font-weight:bold;vertical-align:top">db_sessions</td><td valign="top">:</td><td><div>set([])</div></td></tr><tr><td style="font-weight:bold;vertical-align:top">debugging</td><td valign="top">:</td><td><div>True</div></td></tr><tr><td style="font-weight:bold;vertical-align:top">gluon_parent</td><td valign="top">:</td><td><div>/home/mohanty/web2py</div></td></tr><tr><td style="font-weight:bold;vertical-align:top">http_accept</td><td valign="top">:</td><td><div>text/html,application/xhtml+xml,application/xml;q=0.9,*/*;q=0.8</div></td></tr><tr><td style="font-weight:bold;vertical-align:top">http_accept_encoding</td><td valign="top">:</td><td><div>gzip, deflate</div></td></tr><tr><td style="font-weight:bold;vertical-align:top">http_accept_language</td><td valign="top">:</td><td><div>en-US,en;q=0.5</div></td></tr><tr><td style="font-weight:bold;vertical-align:top">http_connection</td><td valign="top">:</td><td><div>keep-alive</div></td></tr><tr><td style="font-weight:bold;vertical-align:top">http_cookie</td><td valign="top">:</td><td><div>session_id_welcome=127.0.0.1-c3a390a6-71e0-41f8-aec2-ba827b039fbe; session_id_admin=127.0.0.1-10eabf41-bd93-4388-a4ce-ecd684850f7b; session_id_30thdec=127.0.0.1-39ca0169-672f-4999-8e78-40e5e48836d9; session_id_uipart=127.0.0.1-2c0df2d9-a92c-47d1-b52a-379be039e64f</div></td></tr><tr><td style="font-weight:bold;vertical-align:top">http_host</td><td valign="top">:</td><td><div>127.0.0.1:8000</div></td></tr><tr><td style="font-weight:bold;vertical-align:top">http_user_agent</td><td valign="top">:</td><td><div>Mozilla/5.0 (X11; Ubuntu; Linux x86_64; rv:20.0) Gecko/20100101 Firefox/20.0</div></td></tr><tr><td style="font-weight:bold;vertical-align:top">is_jython</td><td valign="top">:</td><td><div>False</div></td></tr><tr><td style="font-weight:bold;vertical-align:top">is_pypy</td><td valign="top">:</td><td><div>False</div></td></tr><tr><td style="font-weight:bold;vertical-align:top">local_hosts</td><td valign="top">:</td><td><div><table><tr><td><div>::1</div></td></tr><tr><td><div>127.0.1.1</div></td></tr><tr><td><div>::ffff:127.0.0.1</div></td></tr><tr><td><div>127.0.0.1</div></td></tr><tr><td><div>mohanty-Inspiron-N5110</div></td></tr></table></div></td></tr><tr><td style="font-weight:bold;vertical-align:top">path_info</td><td valign="top">:</td><td><div>/UIpart/default/rail/Bangalore/Hyderabad/2013-12-03</div></td></tr><tr><td style="font-weight:bold;vertical-align:top">query_string</td><td valign="top">:</td><td><div></div></td></tr><tr><td style="font-weight:bold;vertical-align:top">remote_addr</td><td valign="top">:</td><td><div>127.0.0.1</div></td></tr><tr><td style="font-weight:bold;vertical-align:top">remote_port</td><td valign="top">:</td><td><div>37827</div></td></tr><tr><td style="font-weight:bold;vertical-align:top">request_method</td><td valign="top">:</td><td><div>GET</div></td></tr><tr><td style="font-weight:bold;vertical-align:top">request_uri</td><td valign="top">:</td><td><div>/UIpart/default/rail/Bangalore/Hyderabad/2013-12-03</div></td></tr><tr><td style="font-weight:bold;vertical-align:top">script_name</td><td valign="top">:</td><td><div></div></td></tr><tr><td style="font-weight:bold;vertical-align:top">server_name</td><td valign="top">:</td><td><div>mohanty-Inspiron-N5110</div></td></tr><tr><td style="font-weight:bold;vertical-align:top">server_port</td><td valign="top">:</td><td><div>8000</div></td></tr><tr><td style="font-weight:bold;vertical-align:top">server_protocol</td><td valign="top">:</td><td><div>HTTP/1.1</div></td></tr><tr><td style="font-weight:bold;vertical-align:top">server_software</td><td valign="top">:</td><td><div>Rocket 1.2.6</div></td></tr><tr><td style="font-weight:bold;vertical-align:top">web2py_path</td><td valign="top">:</td><td><div>/home/mohanty/web2py</div></td></tr><tr><td style="font-weight:bold;vertical-align:top">web2py_version</td><td valign="top">:</td><td><div>2.5.1-stable+timestamp.2013.06.06.15.39.19</div></td></tr><tr><td style="font-weight:bold;vertical-align:top">wsgi_errors</td><td valign="top">:</td><td><div>&lt;open file &#x27;&lt;stderr&gt;&#x27;, mode &#x27;w&#x27; at 0x7f871b7231e0&gt;</div></td></tr><tr><td style="font-weight:bold;vertical-align:top">wsgi_file_wrapper</td><td valign="top">:</td><td><div>&lt;class wsgiref.util.FileWrapper at 0x1cf1d50&gt;</div></td></tr><tr><td style="font-weight:bold;vertical-align:top">wsgi_input</td><td valign="top">:</td><td><div>&lt;socket._fileobject object at 0x7f86e81db8d0&gt;</div></td></tr><tr><td style="font-weight:bold;vertical-align:top">wsgi_multiprocess</td><td valign="top">:</td><td><div>False</div></td></tr><tr><td style="font-weight:bold;vertical-align:top">wsgi_multithread</td><td valign="top">:</td><td><div>True</div></td></tr><tr><td style="font-weight:bold;vertical-align:top">wsgi_run_once</td><td valign="top">:</td><td><div>False</div></td></tr><tr><td style="font-weight:bold;vertical-align:top">wsgi_url_scheme</td><td valign="top">:</td><td><div>http</div></td></tr><tr><td style="font-weight:bold;vertical-align:top">wsgi_version</td><td valign="top">:</td><td><div><table><tr><td><div>1</div></td></tr><tr><td><div>0</div></td></tr></table></div></td></tr></table></div></td></tr><tr><td style="font-weight:bold;vertical-align:top">extension</td><td valign="top">:</td><td><div>html</div></td></tr><tr><td style="font-weight:bold;vertical-align:top">folder</td><td valign="top">:</td><td><div>/home/mohanty/web2py/applications/UIpart/</div></td></tr><tr><td style="font-weight:bold;vertical-align:top">function</td><td valign="top">:</td><td><div>rail</div></td></tr><tr><td style="font-weight:bold;vertical-align:top">get_vars</td><td valign="top">:</td><td><div><table></table></div></td></tr><tr><td style="font-weight:bold;vertical-align:top">global_settings</td><td valign="top">:</td><td><div><table><tr><td style="font-weight:bold;vertical-align:top">app_folders</td><td valign="top">:</td><td><div>set([&#x27;/home/mohanty/web2py/applications/welcome/&#x27;, &#x27;/home/mohanty/web2py/applications/30thdec/&#x27;, &#x27;/home/mohanty/web2py/applications/admin/&#x27;, &#x27;/home/mohanty/web2py/applications/UIpart/&#x27;])</div></td></tr><tr><td style="font-weight:bold;vertical-align:top">applications_parent</td><td valign="top">:</td><td><div>/home/mohanty/web2py</div></td></tr><tr><td style="font-weight:bold;vertical-align:top">cmd_args</td><td valign="top">:</td><td><div><table></table></div></td></tr><tr><td style="font-weight:bold;vertical-align:top">cmd_options</td><td valign="top">:</td><td><div>&lt;Values at 0x1b24560: {&#x27;verbose&#x27;: False, &#x27;ip&#x27;: &#x27;127.0.0.1&#x27;, &#x27;with_scheduler&#x27;: False, &#x27;ips&#x27;: [&#x27;127.0.1.1&#x27;], &#x27;shutdown_timeout&#x27;: 5, &#x27;taskbar&#x27;: False, &#x27;with_coverage&#x27;: False, &#x27;port&#x27;: 8000, &#x27;maxthreads&#x27;: None, &#x27;softcron&#x27;: False, &#x27;server_name&#x27;: &#x27;mohanty-Inspiron-N5110&#x27;, &#x27;bpython&#x27;: False, &#x27;nogui&#x27;: False, &#x27;pid_filename&#x27;: &#x27;httpserver.pid&#x27;, &#x27;extcron&#x27;: False, &#x27;runcron&#x27;: False, &#x27;run_system_tests&#x27;: False, &#x27;test&#x27;: None, &#x27;folder&#x27;: &#x27;/home/mohanty/web2py&#x27;, &#x27;config&#x27;: &#x27;&#x27;, &#x27;minthreads&#x27;: None, &#x27;winservice&#x27;: &#x27;&#x27;, &#x27;shell&#x27;: None, &#x27;run&#x27;: &#x27;&#x27;, &#x27;log_filename&#x27;: &#x27;httpserver.log&#x27;, &#x27;debuglevel&#x27;: 30, &#x27;args&#x27;: [&#x27;&#x27;], &#x27;socket_timeout&#x27;: 5, &#x27;ssl_ca_certificate&#x27;: None, &#x27;scheduler&#x27;: None, &#x27;profiler_filename&#x27;: None, &#x27;ssl_private_key&#x27;: &#x27;&#x27;, &#x27;scheduler_groups&#x27;: None, &#x27;password&#x27;: &#x27;&lt;ask&gt;&#x27;, &#x27;request_queue_size&#x27;: 5, &#x27;ssl_certificate&#x27;: &#x27;&#x27;, &#x27;cronjob&#x27;: False, &#x27;numthreads&#x27;: None, &#x27;quiet&#x27;: False, &#x27;interfaces&#x27;: None, &#x27;import_models&#x27;: False, &#x27;timeout&#x27;: 10, &#x27;plain&#x27;: False, &#x27;nobanner&#x27;: False}&gt;</div></td></tr><tr><td style="font-weight:bold;vertical-align:top">db_sessions</td><td valign="top">:</td><td><div>set([])</div></td></tr><tr><td style="font-weight:bold;vertical-align:top">debugging</td><td valign="top">:</td><td><div>True</div></td></tr><tr><td style="font-weight:bold;vertical-align:top">gluon_parent</td><td valign="top">:</td><td><div>/home/mohanty/web2py</div></td></tr><tr><td style="font-weight:bold;vertical-align:top">is_jython</td><td valign="top">:</td><td><div>False</div></td></tr><tr><td style="font-weight:bold;vertical-align:top">is_pypy</td><td valign="top">:</td><td><div>False</div></td></tr><tr><td style="font-weight:bold;vertical-align:top">local_hosts</td><td valign="top">:</td><td><div><table><tr><td><div>::1</div></td></tr><tr><td><div>127.0.1.1</div></td></tr><tr><td><div>::ffff:127.0.0.1</div></td></tr><tr><td><div>127.0.0.1</div></td></tr><tr><td><div>mohanty-Inspiron-N5110</div></td></tr></table></div></td></tr><tr><td style="font-weight:bold;vertical-align:top">web2py_version</td><td valign="top">:</td><td><div>2.5.1-stable+timestamp.2013.06.06.15.39.19</div></td></tr></table></div></td></tr><tr><td style="font-weight:bold;vertical-align:top">is_https</td><td valign="top">:</td><td><div>False</div></td></tr><tr><td style="font-weight:bold;vertical-align:top">is_local</td><td valign="top">:</td><td><div>True</div></td></tr><tr><td style="font-weight:bold;vertical-align:top">is_restful</td><td valign="top">:</td><td><div>False</div></td></tr><tr><td style="font-weight:bold;vertical-align:top">now</td><td valign="top">:</td><td><div>datetime.datetime(2013, 12, 1, 21, 56, 24, 483376)</div></td></tr><tr><td style="font-weight:bold;vertical-align:top">post_vars</td><td valign="top">:</td><td><div><table></table></div></td></tr><tr><td style="font-weight:bold;vertical-align:top">raw_args</td><td valign="top">:</td><td><div>Bangalore/Hyderabad/2013-12-03</div></td></tr><tr><td style="font-weight:bold;vertical-align:top">raw_extension</td><td valign="top">:</td><td><div>None</div></td></tr><tr><td style="font-weight:bold;vertical-align:top">url</td><td valign="top">:</td><td><div>/UIpart/default/rail/Bangalore/Hyderabad/2013-12-03</div></td></tr><tr><td style="font-weight:bold;vertical-align:top">utcnow</td><td valign="top">:</td><td><div>datetime.datetime(2013, 12, 1, 16, 26, 24, 483410)</div></td></tr><tr><td style="font-weight:bold;vertical-align:top">uuid</td><td valign="top">:</td><td><div>UIpart/127.0.0.1.2013-12-01.21-56-24.1d69f6af-d488-4f96-89e6-56be69ed943c</div></td></tr><tr><td style="font-weight:bold;vertical-align:top">vars</td><td valign="top">:</td><td><div><table></table></div></td></tr><tr><td style="font-weight:bold;vertical-align:top">wsgi</td><td valign="top">:</td><td><div><table><tr><td style="font-weight:bold;vertical-align:top">environ</td><td valign="top">:</td><td><div><table><tr><td style="font-weight:bold;vertical-align:top">HTTP_ACCEPT</td><td valign="top">:</td><td><div>text/html,application/xhtml+xml,application/xml;q=0.9,*/*;q=0.8</div></td></tr><tr><td style="font-weight:bold;vertical-align:top">HTTP_ACCEPT_ENCODING</td><td valign="top">:</td><td><div>gzip, deflate</div></td></tr><tr><td style="font-weight:bold;vertical-align:top">HTTP_ACCEPT_LANGUAGE</td><td valign="top">:</td><td><div>en-US,en;q=0.5</div></td></tr><tr><td style="font-weight:bold;vertical-align:top">HTTP_CONNECTION</td><td valign="top">:</td><td><div>keep-alive</div></td></tr><tr><td style="font-weight:bold;vertical-align:top">HTTP_COOKIE</td><td valign="top">:</td><td><div>session_id_welcome=127.0.0.1-c3a390a6-71e0-41f8-aec2-ba827b039fbe; session_id_admin=127.0.0.1-10eabf41-bd93-4388-a4ce-ecd684850f7b; session_id_30thdec=127.0.0.1-39ca0169-672f-4999-8e78-40e5e48836d9; session_id_uipart=127.0.0.1-2c0df2d9-a92c-47d1-b52a-379be039e64f</div></td></tr><tr><td style="font-weight:bold;vertical-align:top">HTTP_HOST</td><td valign="top">:</td><td><div>127.0.0.1:8000</div></td></tr><tr><td style="font-weight:bold;vertical-align:top">HTTP_USER_AGENT</td><td valign="top">:</td><td><div>Mozilla/5.0 (X11; Ubuntu; Linux x86_64; rv:20.0) Gecko/20100101 Firefox/20.0</div></td></tr><tr><td style="font-weight:bold;vertical-align:top">PATH_INFO</td><td valign="top">:</td><td><div>/UIpart/default/rail/Bangalore/Hyderabad/2013-12-03</div></td></tr><tr><td style="font-weight:bold;vertical-align:top">QUERY_STRING</td><td valign="top">:</td><td><div></div></td></tr><tr><td style="font-weight:bold;vertical-align:top">REMOTE_ADDR</td><td valign="top">:</td><td><div>127.0.0.1</div></td></tr><tr><td style="font-weight:bold;vertical-align:top">REMOTE_PORT</td><td valign="top">:</td><td><div>37827</div></td></tr><tr><td style="font-weight:bold;vertical-align:top">REQUEST_METHOD</td><td valign="top">:</td><td><div>GET</div></td></tr><tr><td style="font-weight:bold;vertical-align:top">REQUEST_URI</td><td valign="top">:</td><td><div>/UIpart/default/rail/Bangalore/Hyderabad/2013-12-03</div></td></tr><tr><td style="font-weight:bold;vertical-align:top">SCRIPT_NAME</td><td valign="top">:</td><td><div></div></td></tr><tr><td style="font-weight:bold;vertical-align:top">SERVER_NAME</td><td valign="top">:</td><td><div>mohanty-Inspiron-N5110</div></td></tr><tr><td style="font-weight:bold;vertical-align:top">SERVER_PORT</td><td valign="top">:</td><td><div>8000</div></td></tr><tr><td style="font-weight:bold;vertical-align:top">SERVER_PROTOCOL</td><td valign="top">:</td><td><div>HTTP/1.1</div></td></tr><tr><td style="font-weight:bold;vertical-align:top">SERVER_SOFTWARE</td><td valign="top">:</td><td><div>Rocket 1.2.6</div></td></tr><tr><td style="font-weight:bold;vertical-align:top">wsgi.errors</td><td valign="top">:</td><td><div>&lt;open file &#x27;&lt;stderr&gt;&#x27;, mode &#x27;w&#x27; at 0x7f871b7231e0&gt;</div></td></tr><tr><td style="font-weight:bold;vertical-align:top">wsgi.file_wrapper</td><td valign="top">:</td><td><div>&lt;class wsgiref.util.FileWrapper at 0x1cf1d50&gt;</div></td></tr><tr><td style="font-weight:bold;vertical-align:top">wsgi.input</td><td valign="top">:</td><td><div>&lt;cStringIO.StringO object at 0x7f86e0367b58&gt;</div></td></tr><tr><td style="font-weight:bold;vertical-align:top">wsgi.multiprocess</td><td valign="top">:</td><td><div>False</div></td></tr><tr><td style="font-weight:bold;vertical-align:top">wsgi.multithread</td><td valign="top">:</td><td><div>True</div></td></tr><tr><td style="font-weight:bold;vertical-align:top">wsgi.run_once</td><td valign="top">:</td><td><div>False</div></td></tr><tr><td style="font-weight:bold;vertical-align:top">wsgi.url_scheme</td><td valign="top">:</td><td><div>http</div></td></tr><tr><td style="font-weight:bold;vertical-align:top">wsgi.version</td><td valign="top">:</td><td><div>1</div></td></tr></table></div></td></tr></table></div></td></tr></table></div>'
tRp70
sS'frames'
p71
(lp72
(dp73
S'file'
p74
S'/home/mohanty/web2py/gluon/restricted.py'
p75
sS'dump'
p76
(dp77
S'environment'
p78
S"{'A': <class 'gluon.html.A'>, 'ANY_OF': <class 'gluon.validators.ANY_OF'>, 'Auth': <class 'gluon.tools.Auth'>, 'B': <class 'gluon.html.B'>, 'BEAUTIFY': <class 'gluon.html.BEAUTIFY'>, 'BODY': <class 'gluon.html.BODY'>, 'BR': <class 'gluon.html.BR'>, 'BUTTON': <class 'gluon.html.BUTTON'>, 'BeautifulSoup': <class 'bs4.BeautifulSoup'>, 'Browser': <class mechanize._mechanize.Browser>, ...}"
p79
sS'ccode'
p80
S'<code object <module> at 0x7f86e441e230, file "/...ications/UIpart/controllers/default.py", line 12>'
p81
ssS'lnum'
p82
I212
sS'lines'
p83
(dp84
I207
S'    try:'
p85
sI208
S'        if isinstance(code, types.CodeType):'
p86
sI209
S'            ccode = code'
p87
sI210
S'        else:'
p88
sI211
S'            ccode = compile2(code, layer)'
p89
sI212
S'        exec ccode in environment'
p90
sI213
S'    except HTTP:'
p91
sI214
S'        raise'
p92
sI215
S'    except RestrictedError:'
p93
sI216
S'        # do not encapsulate (obfuscate) the original RestrictedError'
p94
ssS'call'
p95
S"(code='# -*- coding: utf-8 -*-\\n# this file is released ...oup=soup)\\n\\nresponse._vars=response._caller(rail)\\n', environment={'A': <class 'gluon.html.A'>, 'ANY_OF': <class 'gluon.validators.ANY_OF'>, 'Auth': <class 'gluon.tools.Auth'>, 'B': <class 'gluon.html.B'>, 'BEAUTIFY': <class 'gluon.html.BEAUTIFY'>, 'BODY': <class 'gluon.html.BODY'>, 'BR': <class 'gluon.html.BR'>, 'BUTTON': <class 'gluon.html.BUTTON'>, 'BeautifulSoup': <class 'bs4.BeautifulSoup'>, 'Browser': <class mechanize._mechanize.Browser>, ...}, layer='/home/mohanty/web2py/applications/UIpart/controllers/default.py')"
p96
sS'func'
p97
S'restricted'
p98
sa(dp99
g74
S'/home/mohanty/web2py/applications/UIpart/controllers/default.py'
p100
sg76
(dp101
sg82
I755
sg83
(dp102
I744
S'        br.set_all_readonly(False)'
p103
sI745
S"        br['lccp_trnname']=str(request.args(0))"
p104
sI746
S'        response=br.submit()'
p105
sI747
S'        content=response.read()'
p106
sI748
S'        route=re.findall(\'<TR class="heading_table_top">.*</TABLE>\',content,re.DOTALL)'
p107
sI749
S'        for f in route:'
p108
sI750
S'            print f'
p109
sI751
S'        soup=BeautifulSoup(f)'
p110
sI752
S'        soup=soup.table'
p111
sI753
S'        return dict(soup=soup)'
p112
ssg95
S'()'
p113
sg97
S'<module>'
p114
sa(dp115
g74
S'/home/mohanty/web2py/gluon/globals.py'
p116
sg76
(dp117
S'self'
p118
S'undefined'
p119
sS'f'
S'<function rail>'
p120
ssg82
I194
sg83
(dp121
I192
S"        self.delimiters = ('{{', '}}')"
p122
sI193
S'        self._vars = None'
p123
sI194
S'        self._caller = lambda f: f()'
p124
sI195
S'        self._view_environment = None'
p125
sI196
S'        self._custom_commit = None'
p126
sI197
S'        self._custom_rollback = None'
p127
sI198
S''
sI189
S'        self.menu = []             # used by the default view layout'
p128
sI190
S'        self.files = []            # used by web2py_ajax.html'
p129
sI191
S'        self.generic_patterns = []  # patterns to allow generic views'
p130
ssg95
S'(f=<function rail>)'
p131
sg97
S'<lambda>'
p132
sa(dp133
g74
S'/home/mohanty/web2py/applications/UIpart/controllers/default.py'
p134
sg76
(dp135
S'browser.open'
p136
S'<bound method Browser.open of <mechanize._mechanize.Browser instance>>'
p137
sS'global browser'
p138
S'<mechanize._mechanize.Browser instance>'
p139
ssg82
I624
sg83
(dp140
I619
S"                redirect(URL('index'))"
p141
sI620
S'            else:'
p142
sI621
S"                redirect(URL(r=request,f='rail',args=(form.vars.From,form.vars.To,form.vars.d)))"
p143
sI622
S'        return dict(form=form)'
p144
sI623
S'def rail():'
p145
sI624
S'        browser.open("http://www.indianrail.gov.in/know_Station_Code.html")'
p146
sI625
S'        browser.select_form(nr=0)'
p147
sI626
S'        browser.set_all_readonly(False)'
p148
sI627
S"        if request.args(0) == 'New_Delhi':"
p149
sI628
S"                browser['lccp_src_stncode_dis']='NDLS'"
p150
ssg95
S'()'
p151
sg97
S'rail'
p152
sa(dp153
g74
S'/usr/lib/python2.7/dist-packages/mechanize/_mechanize.py'
p154
sg76
(dp155
S'url'
p156
S"'http://www.indianrail.gov.in/know_Station_Code.html'"
p157
sS'data'
p158
S'None'
p159
sS'self'
p160
S'<mechanize._mechanize.Browser instance>'
p161
sS'self._mech_open'
p162
S'<bound method Browser._mech_open of <mechanize._mechanize.Browser instance>>'
p163
sS'timeout'
p164
S'<object object>'
p165
ssg82
I203
sg83
(dp166
I198
S'        """'
p167
sI199
S'        return self._mech_open(url, data, visit=False, timeout=timeout)'
p168
sI200
S''
sI201
S'    def open(self, url, data=None,'
p169
sI202
S'             timeout=_sockettimeout._GLOBAL_DEFAULT_TIMEOUT):'
p170
sI203
S'        return self._mech_open(url, data, timeout=timeout)'
p171
sI204
S''
sI205
S'    def _mech_open(self, url, data=None, update_history=True, visit=None,'
p172
sI206
S'                   timeout=_sockettimeout._GLOBAL_DEFAULT_TIMEOUT):'
p173
sI207
S'        try:'
p174
ssg95
S"(self=<mechanize._mechanize.Browser instance>, url='http://www.indianrail.gov.in/know_Station_Code.html', data=None, timeout=<object object>)"
p175
sg97
S'open'
p176
sa(dp177
g74
S'/usr/lib/python2.7/dist-packages/mechanize/_mechanize.py'
p178
sg76
(dp179
S'self'
p180
S'<mechanize._mechanize.Browser instance>'
p181
sS'request'
p182
S'<mechanize._request.Request instance>'
p183
sS'UserAgentBase.open'
p184
S'<unbound method UserAgentBase.open>'
p185
sS'global UserAgentBase'
p186
S'<class mechanize._useragent.UserAgentBase>'
p187
sS'data'
p188
S'None'
p189
sS'response'
p190
g119
ssg82
I230
sg83
(dp191
I225
S'        if visit:'
p192
sI226
S'            self._visit_request(request, update_history)'
p193
sI227
S''
sI228
S'        success = True'
p194
sI229
S'        try:'
p195
sI230
S'            response = UserAgentBase.open(self, request, data)'
p196
sI231
S'        except urllib2.HTTPError, error:'
p197
sI232
S'            success = False'
p198
sI233
S'            if error.fp is None:  # not a response'
p199
sI234
S'                raise'
p200
ssg95
S"(self=<mechanize._mechanize.Browser instance>, url='http://www.indianrail.gov.in/know_Station_Code.html', data=None, update_history=True, visit=True, timeout=<object object>)"
p201
sg97
S'_mech_open'
p202
sa(dp203
g74
S'/usr/lib/python2.7/dist-packages/mechanize/_opener.py'
p204
sg76
(dp205
S'urlopen'
p206
S'<unbound method OpenerDirector._open>'
p207
sS'self'
p208
S'<mechanize._mechanize.Browser instance>'
p209
sS'req'
p210
S'<mechanize._request.Request instance>'
p211
sS'data'
p212
S'None'
p213
sS'response'
p214
g119
ssg82
I193
sg83
(dp215
I192
S'        urlopen = _urllib2_fork.OpenerDirector._open'
p216
sI193
S'        response = urlopen(self, req, data)'
p217
sI194
S''
sI195
S'        # post-process response'
p218
sI196
S'        response_processors = set(self.process_response.get(req_scheme, []))'
p219
sI197
S'        response_processors.update(self._any_response)'
p220
sI188
S'                    req = meth(req)'
p221
sI189
S''
sI190
S'        # In Python >= 2.4, .open() supports processors already, so we must'
p222
sI191
S'        # call ._open() instead.'
p223
ssg95
S'(self=<mechanize._mechanize.Browser instance>, fullurl=<mechanize._request.Request instance>, data=None, timeout=<object object>)'
p224
sg97
g176
sa(dp225
g74
S'/usr/lib/python2.7/dist-packages/mechanize/_urllib2_fork.py'
p226
sg76
(dp227
S'req'
p228
S'<mechanize._request.Request instance>'
p229
ssg82
I344
sg83
(dp230
I339
S'        if result:'
p231
sI340
S'            return result'
p232
sI341
S''
sI342
S'        protocol = req.get_type()'
p233
sI343
S'        result = self._call_chain(self.handle_open, protocol, protocol +'
p234
sI344
S"                                  '_open', req)"
p235
sI345
S'        if result:'
p236
sI346
S'            return result'
p237
sI347
S''
sI348
S"        return self._call_chain(self.handle_open, 'unknown',"
p238
ssg95
S'(self=<mechanize._mechanize.Browser instance>, req=<mechanize._request.Request instance>, data=None)'
p239
sg97
S'_open'
p240
sa(dp241
g74
S'/usr/lib/python2.7/dist-packages/mechanize/_urllib2_fork.py'
p242
sg76
(dp243
S'args'
p244
S'(<mechanize._request.Request instance>,)'
p245
sS'result'
p246
g119
sS'func'
p247
S'<bound method HTTPHandler.http_open of <mechanize._urllib2_fork.HTTPHandler instance>>'
p248
ssg82
I332
sg83
(dp249
I327
S'        # could.  Otherwise, they return the response.'
p250
sI328
S'        handlers = chain.get(kind, ())'
p251
sI329
S'        for handler in handlers:'
p252
sI330
S'            func = getattr(handler, meth_name)'
p253
sI331
S''
sI332
S'            result = func(*args)'
p254
sI333
S'            if result is not None:'
p255
sI334
S'                return result'
p256
sI335
S''
sI336
S'    def _open(self, req, data=None):'
p257
ssg95
S"(self=<mechanize._mechanize.Browser instance>, chain={'file': [<mechanize._urllib2_fork.FileHandler instance>], 'ftp': [<mechanize._urllib2_fork.FTPHandler instance>], 'http': [<mechanize._urllib2_fork.HTTPHandler instance>], 'https': [<mechanize._urllib2_fork.HTTPSHandler instance>], 'unknown': [<mechanize._urllib2_fork.UnknownHandler instance>]}, kind='http', meth_name='http_open', *args=(<mechanize._request.Request instance>,))"
p258
sg97
S'_call_chain'
p259
sa(dp260
g74
S'/usr/lib/python2.7/dist-packages/mechanize/_urllib2_fork.py'
p261
sg76
(dp262
S'self'
p263
S'<mechanize._urllib2_fork.HTTPHandler instance>'
p264
sS'req'
p265
S'<mechanize._request.Request instance>'
p266
sS'global httplib'
p267
S"<module 'httplib' from '/usr/lib/python2.7/httplib.pyc'>"
p268
sS'self.do_open'
p269
S'<bound method HTTPHandler.do_open of <mechanize._urllib2_fork.HTTPHandler instance>>'
p270
sS'httplib.HTTPConnection'
p271
S'<class httplib.HTTPConnection>'
p272
ssg82
I1142
sg83
(dp273
I1137
S''
sI1138
S''
sI1139
S'class HTTPHandler(AbstractHTTPHandler):'
p274
sI1140
S''
sI1141
S'    def http_open(self, req):'
p275
sI1142
S'        return self.do_open(httplib.HTTPConnection, req)'
p276
sI1143
S''
sI1144
S'    http_request = AbstractHTTPHandler.do_request_'
p277
sI1145
S''
sI1146
S"if hasattr(httplib, 'HTTPS'):"
p278
ssg95
S'(self=<mechanize._urllib2_fork.HTTPHandler instance>, req=<mechanize._request.Request instance>)'
p279
sg97
S'http_open'
p280
sa(dp281
g74
S'/usr/lib/python2.7/dist-packages/mechanize/_urllib2_fork.py'
p282
sg76
(dp283
S'err'
p284
S"error(111, 'Connection refused')"
p285
sS'global URLError'
p286
S"<class 'urllib2.URLError'>"
p287
ssg82
I1118
sg83
(dp288
I1120
S'        # Pick apart the HTTPResponse object to get the addinfourl'
p289
sI1121
S'        # object initialized properly.'
p290
sI1122
S''
sI1113
S''
sI1114
S'        try:'
p291
sI1115
S'            h.request(req.get_method(), req.get_selector(), req.data, headers)'
p292
sI1116
S'            r = h.getresponse()'
p293
sI1117
S'        except socket.error, err: # XXX what error?'
p294
sI1118
S'            raise URLError(err)'
p295
sI1119
S''
ssg95
S'(self=<mechanize._urllib2_fork.HTTPHandler instance>, http_class=<class httplib.HTTPConnection>, req=<mechanize._request.Request instance>)'
p296
sg97
S'do_open'
p297
sasS'pyver'
p298
S'Python 2.7.4: /usr/bin/python (prefix: /usr)'
p299
sS'session'
p300
g69
(S's\xdc\x02\x00\x00<div><table><tr><td style="font-weight:bold;vertical-align:top">auth</td><td valign="top">:</td><td><div>None</div></td></tr><tr><td style="font-weight:bold;vertical-align:top">date</td><td valign="top">:</td><td><div>2013-12-18</div></td></tr><tr><td style="font-weight:bold;vertical-align:top">flash</td><td valign="top">:</td><td><div>None</div></td></tr><tr><td style="font-weight:bold;vertical-align:top">last_orderby</td><td valign="top">:</td><td><div>None</div></td></tr><tr><td style="font-weight:bold;vertical-align:top">last_query</td><td valign="top">:</td><td><div>db.rail.id&gt;0</div></td></tr><tr><td style="font-weight:bold;vertical-align:top">var</td><td valign="top">:</td><td><div>1</div></td></tr></table></div>'
tRp301
sS'etype'
p302
S"<class 'urllib2.URLError'>"
p303
sS'date'
p304
S'Sun Dec  1 21:56:24 2013'
p305
sS'response'
p306
g69
(S's\x87,\x00\x00<div><table><tr><td style="font-weight:bold;vertical-align:top">body</td><td valign="top">:</td><td><div>&lt;cStringIO.StringO object at 0x7f86fc384c38&gt;</div></td></tr><tr><td style="font-weight:bold;vertical-align:top">cookies</td><td valign="top">:</td><td><div><table><tr><td style="font-weight:bold;vertical-align:top">session_id_uipart</td><td valign="top">:</td><td><div>127.0.0.1-2c0df2d9-a92c-47d1-b52a-379be039e64f<table><tr><td style="font-weight:bold;vertical-align:top">comment</td><td valign="top">:</td><td><div></div></td></tr><tr><td style="font-weight:bold;vertical-align:top">domain</td><td valign="top">:</td><td><div></div></td></tr><tr><td style="font-weight:bold;vertical-align:top">expires</td><td valign="top">:</td><td><div></div></td></tr><tr><td style="font-weight:bold;vertical-align:top">httponly</td><td valign="top">:</td><td><div></div></td></tr><tr><td style="font-weight:bold;vertical-align:top">max-age</td><td valign="top">:</td><td><div></div></td></tr><tr><td style="font-weight:bold;vertical-align:top">path</td><td valign="top">:</td><td><div>/</div></td></tr><tr><td style="font-weight:bold;vertical-align:top">secure</td><td valign="top">:</td><td><div></div></td></tr><tr><td style="font-weight:bold;vertical-align:top">version</td><td valign="top">:</td><td><div></div></td></tr></table></div></td></tr></table></div></td></tr><tr><td style="font-weight:bold;vertical-align:top">delimiters</td><td valign="top">:</td><td><div><table><tr><td><div>{{</div></td></tr><tr><td><div>}}</div></td></tr></table></div></td></tr><tr><td style="font-weight:bold;vertical-align:top">files</td><td valign="top">:</td><td><div><table></table></div></td></tr><tr><td style="font-weight:bold;vertical-align:top">flash</td><td valign="top">:</td><td><div></div></td></tr><tr><td style="font-weight:bold;vertical-align:top">generic_patterns</td><td valign="top">:</td><td><div><table><tr><td><div>*</div></td></tr></table></div></td></tr><tr><td style="font-weight:bold;vertical-align:top">google_analytics_id</td><td valign="top">:</td><td><div>None</div></td></tr><tr><td style="font-weight:bold;vertical-align:top">headers</td><td valign="top">:</td><td><div><table><tr><td style="font-weight:bold;vertical-align:top">X-Powered-By</td><td valign="top">:</td><td><div>web2py</div></td></tr></table></div></td></tr><tr><td style="font-weight:bold;vertical-align:top">logo</td><td valign="top">:</td><td><div><a class="brand" href="http://www.web2py.com/"><b>web<span>2</span>py</b>&trade;&nbsp;</a></div></td></tr><tr><td style="font-weight:bold;vertical-align:top">menu</td><td valign="top">:</td><td><div><table><tr><td><div><table><tr><td><div>Home</div></td></tr><tr><td><div>False</div></td></tr><tr><td><div>/UIpart/default/index</div></td></tr><tr><td><div><table></table></div></td></tr></table></div></td></tr><tr><td><div><table><tr><td><div><span class="highlighted">web2py</span></div></td></tr><tr><td><div>False</div></td></tr><tr><td><div>http://web2py.com</div></td></tr><tr><td><div><table><tr><td><div><table><tr><td><div>My Sites</div></td></tr><tr><td><div>False</div></td></tr><tr><td><div>/admin/default/site</div></td></tr></table></div></td></tr><tr><td><div><table><tr><td><div>This App</div></td></tr><tr><td><div>False</div></td></tr><tr><td><div>/admin/default/design/UIpart</div></td></tr><tr><td><div>[(&lt;lazyT &#x27;Controller&#x27;&gt;, False, &#x27;/admin/default/edit/UIpart/controllers/default.py&#x27;), (&lt;lazyT &#x27;View&#x27;&gt;, False, &#x27;/admin/default/edit/UIpart/views/default/rail.html&#x27;), (&lt;lazyT &#x27;Layout&#x27;&gt;, False, &#x27;/admin/default/edit/UIpart/views/layout.html&#x27;), (&lt;lazyT &#x27;Stylesheet&#x27;&gt;, False, &#x27;/admin/default/edit/UIpart/static/css/web2py.css&#x27;), (&lt;lazyT &#x27;DB Model&#x27;&gt;, False, &#x27;/admin/default/edit/UIpart/models/db.py&#x27;), (&lt;lazyT &#x27;Menu Model&#x27;&gt;, False, &#x27;/admin/default/edit/UIpart/models/menu.py&#x27;), (&lt;lazyT &#x27;Database&#x27;&gt;, False, &#x27;/UIpart/appadmin/index&#x27;), (&lt;lazyT &#x27;Errors&#x27;&gt;, False, &#x27;/admin/default/errors/UIpart&#x27;), (&lt;lazyT &#x27;About&#x27;&gt;, False, &#x27;/admin/default/about/UIpart&#x27;)]</div></td></tr></table></div></td></tr><tr><td><div><table><tr><td><div>web2py.com</div></td></tr><tr><td><div>False</div></td></tr><tr><td><div>http://www.web2py.com</div></td></tr><tr><td><div>[(&lt;lazyT &#x27;Download&#x27;&gt;, False, &#x27;http://www.web2py.com/examples/default/download&#x27;), (&lt;lazyT &#x27;Support&#x27;&gt;, False, &#x27;http://www.web2py.com/examples/default/support&#x27;), (&lt;lazyT &#x27;Demo&#x27;&gt;, False, &#x27;http://web2py.com/demo_admin&#x27;), (&lt;lazyT &#x27;Quick Examples&#x27;&gt;, False, &#x27;http://web2py.com/examples/default/examples&#x27;), (&lt;lazyT &#x27;FAQ&#x27;&gt;, False, &#x27;http://web2py.com/AlterEgo&#x27;), (&lt;lazyT &#x27;Videos&#x27;&gt;, False, &#x27;http://www.web2py.com/examples/default/videos/&#x27;), (&lt;lazyT &#x27;Free Applications&#x27;&gt;, False, &#x27;http://web2py.com/appliances&#x27;), (&lt;lazyT &#x27;Plugins&#x27;&gt;, False, &#x27;http://web2py.com/plugins&#x27;), (&lt;lazyT &#x27;Layouts&#x27;&gt;, False, &#x27;http://web2py.com/layouts&#x27;), (&lt;lazyT &#x27;Recipes&#x27;&gt;, False, &#x27;http://web2pyslices.com/&#x27;), (&lt;lazyT &#x27;Semantic&#x27;&gt;, False, &#x27;http://web2py.com/semantic&#x27;)]</div></td></tr></table></div></td></tr><tr><td><div><table><tr><td><div>Documentation</div></td></tr><tr><td><div>False</div></td></tr><tr><td><div>http://www.web2py.com/book</div></td></tr><tr><td><div>[(&lt;lazyT &#x27;Preface&#x27;&gt;, False, &#x27;http://www.web2py.com/book/default/chapter/00&#x27;), (&lt;lazyT &#x27;Introduction&#x27;&gt;, False, &#x27;http://www.web2py.com/book/default/chapter/01&#x27;), (&lt;lazyT &#x27;Python&#x27;&gt;, False, &#x27;http://www.web2py.com/book/default/chapter/02&#x27;), (&lt;lazyT &#x27;Overview&#x27;&gt;, False, &#x27;http://www.web2py.com/book/default/chapter/03&#x27;), (&lt;lazyT &#x27;The Core&#x27;&gt;, False, &#x27;http://www.web2py.com/book/default/chapter/04&#x27;), (&lt;lazyT &#x27;The Views&#x27;&gt;, False, &#x27;http://www.web2py.com/book/default/chapter/05&#x27;), (&lt;lazyT &#x27;Database&#x27;&gt;, False, &#x27;http://www.web2py.com/book/default/chapter/06&#x27;), (&lt;lazyT &#x27;Forms and Validators&#x27;&gt;, False, &#x27;http://www.web2py.com/book/default/chapter/07&#x27;), (&lt;lazyT &#x27;Email and SMS&#x27;&gt;, False, &#x27;http://www.web2py.com/book/default/chapter/08&#x27;), (&lt;lazyT &#x27;Access Control&#x27;&gt;, False, &#x27;http://www.web2py.com/book/default/chapter/09&#x27;), (&lt;lazyT &#x27;Services&#x27;&gt;, False, &#x27;http://www.web2py.com/book/default/chapter/10&#x27;), (&lt;lazyT &#x27;Ajax Recipes&#x27;&gt;, False, &#x27;http://www.web2py.com/book/default/chapter/11&#x27;), (&lt;lazyT &#x27;Components and Plugins&#x27;&gt;, False, &#x27;http://www.web2py.com/book/default/chapter/12&#x27;), (&lt;lazyT &#x27;Deployment Recipes&#x27;&gt;, False, &#x27;http://www.web2py.com/book/default/chapter/13&#x27;), (&lt;lazyT &#x27;Other Recipes&#x27;&gt;, False, &#x27;http://www.web2py.com/book/default/chapter/14&#x27;), (&lt;lazyT &#x27;Buy this book&#x27;&gt;, False, &#x27;http://stores.lulu.com/web2py&#x27;)]</div></td></tr></table></div></td></tr><tr><td><div><table><tr><td><div>Community</div></td></tr><tr><td><div>False</div></td></tr><tr><td><div>None</div></td></tr><tr><td><div>[(&lt;lazyT &#x27;Groups&#x27;&gt;, False, &#x27;http://www.web2py.com/examples/default/usergroups&#x27;), (&lt;lazyT &#x27;Twitter&#x27;&gt;, False, &#x27;http://twitter.com/web2py&#x27;), (&lt;lazyT &#x27;Live Chat&#x27;&gt;, False, &#x27;http://webchat.freenode.net/?channels=web2py&#x27;)]</div></td></tr></table></div></td></tr><tr><td><div><table><tr><td><div>Plugins</div></td></tr><tr><td><div>False</div></td></tr><tr><td><div>None</div></td></tr><tr><td><div>[(&#x27;plugin_wiki&#x27;, False, &#x27;http://web2py.com/examples/default/download&#x27;), (&lt;lazyT &#x27;Other Plugins&#x27;&gt;, False, &#x27;http://web2py.com/plugins&#x27;), (&lt;lazyT &#x27;Layout Plugins&#x27;&gt;, False, &#x27;http://web2py.com/layouts&#x27;)]</div></td></tr></table></div></td></tr></table></div></td></tr></table></div></td></tr></table></div></td></tr><tr><td style="font-weight:bold;vertical-align:top">meta</td><td valign="top">:</td><td><div><table><tr><td style="font-weight:bold;vertical-align:top">author</td><td valign="top">:</td><td><div>Your Name &lt;you@example.com&gt;</div></td></tr><tr><td style="font-weight:bold;vertical-align:top">description</td><td valign="top">:</td><td><div>a cool new app</div></td></tr><tr><td style="font-weight:bold;vertical-align:top">generator</td><td valign="top">:</td><td><div>Web2py Web Framework</div></td></tr><tr><td style="font-weight:bold;vertical-align:top">keywords</td><td valign="top">:</td><td><div>web2py, python, framework</div></td></tr></table></div></td></tr><tr><td style="font-weight:bold;vertical-align:top">models_to_run</td><td valign="top">:</td><td><div><table><tr><td><div>^\\w+\\.py$</div></td></tr><tr><td><div>^default/\\w+\\.py$</div></td></tr><tr><td><div>^default/rail/\\w+\\.py$</div></td></tr></table></div></td></tr><tr><td style="font-weight:bold;vertical-align:top">postprocessing</td><td valign="top">:</td><td><div><table></table></div></td></tr><tr><td style="font-weight:bold;vertical-align:top">session_cookie_expires</td><td valign="top">:</td><td><div>None</div></td></tr><tr><td style="font-weight:bold;vertical-align:top">session_data_name</td><td valign="top">:</td><td><div>session_data_uipart</div></td></tr><tr><td style="font-weight:bold;vertical-align:top">session_file</td><td valign="top">:</td><td><div>&lt;open file &#x27;/home/mohanty/web2py/applications/UIpart/sessions/127.0.0.1-2c0df2d9-a92c-47d1-b52a-379be039e64f&#x27;, mode &#x27;rb+&#x27; at 0x7f86e0541660&gt;</div></td></tr><tr><td style="font-weight:bold;vertical-align:top">session_filename</td><td valign="top">:</td><td><div>/home/mohanty/web2py/applications/UIpart/sessions/127.0.0.1-2c0df2d9-a92c-47d1-b52a-379be039e64f</div></td></tr><tr><td style="font-weight:bold;vertical-align:top">session_id</td><td valign="top">:</td><td><div>127.0.0.1-2c0df2d9-a92c-47d1-b52a-379be039e64f</div></td></tr><tr><td style="font-weight:bold;vertical-align:top">session_id_name</td><td valign="top">:</td><td><div>session_id_uipart</div></td></tr><tr><td style="font-weight:bold;vertical-align:top">session_locked</td><td valign="top">:</td><td><div>True</div></td></tr><tr><td style="font-weight:bold;vertical-align:top">session_new</td><td valign="top">:</td><td><div>False</div></td></tr><tr><td style="font-weight:bold;vertical-align:top">session_storage_type</td><td valign="top">:</td><td><div>file</div></td></tr><tr><td style="font-weight:bold;vertical-align:top">status</td><td valign="top">:</td><td><div>200</div></td></tr><tr><td style="font-weight:bold;vertical-align:top">subtitle</td><td valign="top">:</td><td><div>customize me!</div></td></tr><tr><td style="font-weight:bold;vertical-align:top">title</td><td valign="top">:</td><td><div>Uipart</div></td></tr><tr><td style="font-weight:bold;vertical-align:top">view</td><td valign="top">:</td><td><div>default/rail.html</div></td></tr></table></div>'
tRp307
sS'locals'
p308
(dp309
S'err'
p310
S"error(111, 'Connection refused')"
p311
sS'host_port'
p312
S"'www.indianrail.gov.in'"
p313
sS'self'
p314
S'<mechanize._urllib2_fork.HTTPHandler instance>'
p315
sS'req'
p316
S'<mechanize._request.Request instance>'
p317
sS'headers'
p318
S"{'Connection': 'close', 'Host': 'www.indianrail.gov.in', 'User-Agent': 'Python-urllib/2.7'}"
p319
sS'h'
S'<httplib.HTTPConnection instance>'
p320
sS'http_class'
p321
S'<class httplib.HTTPConnection>'
p322
sssS'traceback'
p323
S'Traceback (most recent call last):\n  File "/home/mohanty/web2py/gluon/restricted.py", line 212, in restricted\n    exec ccode in environment\n  File "/home/mohanty/web2py/applications/UIpart/controllers/default.py", line 755, in <module>\n  File "/home/mohanty/web2py/gluon/globals.py", line 194, in <lambda>\n    self._caller = lambda f: f()\n  File "/home/mohanty/web2py/applications/UIpart/controllers/default.py", line 624, in rail\n    browser.open("http://www.indianrail.gov.in/know_Station_Code.html")\n  File "/usr/lib/python2.7/dist-packages/mechanize/_mechanize.py", line 203, in open\n    return self._mech_open(url, data, timeout=timeout)\n  File "/usr/lib/python2.7/dist-packages/mechanize/_mechanize.py", line 230, in _mech_open\n    response = UserAgentBase.open(self, request, data)\n  File "/usr/lib/python2.7/dist-packages/mechanize/_opener.py", line 193, in open\n    response = urlopen(self, req, data)\n  File "/usr/lib/python2.7/dist-packages/mechanize/_urllib2_fork.py", line 344, in _open\n    \'_open\', req)\n  File "/usr/lib/python2.7/dist-packages/mechanize/_urllib2_fork.py", line 332, in _call_chain\n    result = func(*args)\n  File "/usr/lib/python2.7/dist-packages/mechanize/_urllib2_fork.py", line 1142, in http_open\n    return self.do_open(httplib.HTTPConnection, req)\n  File "/usr/lib/python2.7/dist-packages/mechanize/_urllib2_fork.py", line 1118, in do_open\n    raise URLError(err)\nURLError: <urlopen error [Errno 111] Connection refused>\n'
p324
s.