(dp1
S'output'
p2
S"<class 'mechanize._response.httperror_seek_wrapper'> HTTP Error 502: Bad Gateway"
p3
sS'layer'
p4
S'/home/prabhsimran/web2py/applications/UIpart/controllers/default.py'
p5
sS'code'
p6
S'# -*- coding: utf-8 -*-\n# this file is released under public domain and you can use without limitations\n\n#########################################################################\n## This is a samples controller\n## - index is the default action of any application\n## - user is required for authentication and authorization\n## - download is for downloading files uploaded in the db (does streaming)\n## - call exposes all registered services (none by default)\n#########################################################################\n\ndef index():\n    """\n    example action using the internationalization operator T and flash\n    rendered by views/default/index.html or views/generic.html\n    """\n    response.flash = "Welcome to web2py!"\n    return dict(message=T(\'Hello World\'))\n\ndef user():\n    """\n    exposes:\n    http://..../[app]/default/user/login\n    http://..../[app]/default/user/logout\n    http://..../[app]/default/user/register\n    http://..../[app]/default/user/profile\n    http://..../[app]/default/user/retrieve_password\n    http://..../[app]/default/user/change_password\n    use @auth.requires_login()\n        @auth.requires_membership(\'group name\')\n        @auth.requires_permission(\'read\',\'table name\',record_id)\n    to decorate functions that need access control\n    """\n    return dict(form=auth())\n\n\ndef download():\n    """\n    allows downloading of uploaded files\n    http://..../[app]/default/download/[filename]\n    """\n    return response.download(request,db)\n\n\ndef call():\n    """\n    exposes services. for example:\n    http://..../[app]/default/call/jsonrpc\n    decorate with @services.jsonrpc the functions to expose\n    supports xml, json, xmlrpc, jsonrpc, amfrpc, rss, csv\n    """\n    return service()\n\n\n@auth.requires_signature()\ndef data():\n    """\n    http://..../[app]/default/data/tables\n    http://..../[app]/default/data/create/[table]\n    http://..../[app]/default/data/read/[table]/[id]\n    http://..../[app]/default/data/update/[table]/[id]\n    http://..../[app]/default/data/delete/[table]/[id]\n    http://..../[app]/default/data/select/[table]\n    http://..../[app]/default/data/search/[table]\n    but URLs must be signed, i.e. linked with\n      A(\'table\',_href=URL(\'data/tables\',user_signature=True))\n    or with the signed load operator\n      LOAD(\'default\',\'data.load\',args=\'tables\',ajax=True,user_signature=True)\n    """\n    return dict(form=crud())\n\nimport datetime\ndef index():\n\tform=SQLFORM.factory(\n\t\t\tField(\'From\',requires=IS_IN_DB(db,db.places.body)),\n\t\t\tField(\'To\',requires=IS_IN_DB(db,db.places.body)),\n\t\t\tField(\'d\',\'date\',label=\'Departure(Date)\',requires=IS_DATE()),\n\t\t\tField(\'d1\',\'date\',label=\'Arrival(Date)\'),\n\t\t\tField(\'Class\',requires=IS_IN_SET([\'Business\',\'Economy\'])),\n\t\t\tField(\'seats\',label=\'Number of passengers\',requires=IS_IN_SET((1,2,3,4,5,6,7,8,9,10))))\n\tif form.accepts(request.vars,session):\n\t\tif form.vars.From == form.vars.To:\n\t\t\tsession.flash="Source and Destination should not be the same!"\n\t\t\tredirect(URL(\'index\'))\n\t\telif form.vars.d<datetime.date.today():\n\t\t\tsession.flash="Enter a valid date!"\n\t\t\tredirect(URL(\'index\'))\n\t\telif form.vars.d1:\n\t\t\tsession.seats=request.vars.seats\n\t\t\tsession.date=request.vars.d\n\t\t\tsession.date2=request.vars.d1\n\t\t \tredirect(URL(\'round_search\',args=(request.vars.From,request.vars.To,request.vars.d,request.vars.seats,request.vars.Class,request.vars.d1)))\n\t\telse:\n\t\t\tsession.seats=request.vars.seats\n\t\t\tsession.date=request.vars.d\n\t\t\tredirect(URL(\'search\',args=(request.vars.From,request.vars.To,request.vars.d,request.vars.seats,request.vars.Class)))\n\tsession.var=1\n\treturn dict(form=form)\n\ndef round_search():\n\tsrc=db((db.trips.src==request.args(0))&(db.trips.d==request.args(2))&(db.trips.cl==str(request.args(4)))).select()\n\tdest=db((db.trips.dest==request.args(1))&(db.trips.cl==str(request.args(4)))).select()\n    \tif len(src)==0 or len(dest)==0:\n       \t \tsession.flash="No Trips Found! :( "\n        \tredirect(URL(\'index\'))\n\tlis=[]\n\tfor i in range(0,len(dest)):\n\t\tque=dest[i].name\n\t\tfor j in range(len(src)):\n\t\t\tif que==src[j].name:\n\t\t\t\tlis.append(que)\n\tif len(lis)==0:\n\t  \tsession.flash="No trips found!"\n\t  \tredirect(URL(\'index\'))\n\tseats=[]\n\tprice=[]\n\tlogo=[]\n\tdtime=[]\n\tatime=[]\n\tn=[]\n\tcompany=[]\n\tfor i in range(len(lis)):\n\t\tsend=[]\n\t\tsome=db((db.trips.name==lis[i])&(db.trips.src==request.args(0))).select()\n\t\tif len(some):\n\t\t\tsend.append(some[0].id)\n\t\t\tdesti=some[0].dest\n\t\t\tm=some[0].seats\n\t\t\tp=some[0].price\n\t\t\tdtime.append(some[0].departure)\n\t\t\twhile desti!=request.args(1):\n\t\t\t\tsome=db((db.trips.name==lis[i])&(db.trips.src==desti)).select()\n\t\t\t\tif len(some):\t\n\t\t\t\t\tdesti=some[0].dest\n\t\t\t\t\tif some[0].seats<m:\n\t\t\t\t\t\tm=some[0].seats\n\t\t\t\t\tp+=some[0].price\n\t\t\t\t\tsend.append(some[0].id)\n\t\t\t\telse:\n\t\t\t\t\tsession.flash="No trips Found!"\n#\t\t\t\t\tredirect(URL(\'index\'))\n\t\t\tatime.append(some[0].arrival)\n\t\t\tn.append(send)\n\t\t\tlogo.append(some[0].logo)\n\t\t\tcompany.append(some[0].company)\n\t\t\tseats.append(m)\n\t\t\tprice.append(p)\n\t\telse:\n\t\t\tsession.flash="No trips found!"\n#\t\t\tredirect(URL(\'index\'))\n\tl=len(lis)\n\tfor i in range(l):\n\t\tif seats[i]<int(request.args(3)):\n\t\t\tseats.remove(seats[i])\n\t\t\tprice.remove(price[i])\n\t\t\tlogo.remove(logo[i])\n\t\t\tatime.remove(atime[i])\n\t\t\tdtime.remove(dtime[i])\n\t\t\tlis.remove(lis[i])\n\tnew=[]\n\tfor i in n:\n\t\tst=""\n\t\tfor j in i:\n\t\t\tst+=str(j)\n\t\t\tst+=\'_\'\n\t\tnew.append(st[0:-1])\n\n\tsrc=db((db.trips.src==request.args(1))&(db.trips.d==request.args(5))&(db.trips.cl==str(request.args(4)))).select()\n\tdest=db((db.trips.dest==request.args(0))&(db.trips.cl==str(request.args(4)))).select()\n    \tif len(src)==0 or len(dest)==0:\n       \t \tsession.flash="No Trips Found! :( "\n        \tredirect(URL(\'index\'))\n\tlis1=[]\n\tfor i in range(0,len(dest)):\n\t\tque=dest[i].name\n\t\tfor j in range(len(src)):\n\t\t\tif que==src[j].name:\n\t\t\t\tlis1.append(que)\n\tif len(lis1)==0:\n\t  \tsession.flash="No trips found!"\n\t  \tredirect(URL(\'index\'))\n\tseats1=[]\n\tprice1=[]\n\tlogo1=[]\n\tdtime1=[]\n\tatime1=[]\n\tn1=[]\n\tcompany1=[]\n\tfor i in range(len(lis1)):\n\t\tsend=[]\n\t\tsome=db((db.trips.name==lis1[i])&(db.trips.src==request.args(1))).select()\n\t\tif len(some):\n\t\t\tsend.append(some[0].id)\n\t\t\tdesti=some[0].dest\n\t\t\tm=some[0].seats\n\t\t\tp=some[0].price\n\t\t\tdtime1.append(some[0].departure)\n\t\t\twhile desti!=request.args(0):\n\t\t\t\tsome=db((db.trips.name==lis1[i])&(db.trips.src==desti)).select()\n\t\t\t\tif len(some):\t\n\t\t\t\t\tdesti=some[0].dest\n\t\t\t\t\tif some[0].seats<m:\n\t\t\t\t\t\tm=some[0].seats\n\t\t\t\t\tp+=some[0].price\n\t\t\t\t\tsend.append(some[0].id)\n\t\t\t\telse:\n\t\t\t\t\tsession.flash="No trips Found!"\n#\t\t\t\t\tredirect(URL(\'index\'))\n\t\t\tatime1.append(some[0].arrival)\n\t\t\tn1.append(send)\n\t\t\tlogo1.append(some[0].logo)\n\t\t\tcompany1.append(some[0].company)\n\t\t\tseats1.append(m)\n\t\t\tprice1.append(p)\n\t\telse:\n\t\t\tsession.flash="No trips found!"\n#\t\t\tredirect(URL(\'index\'))\n\tl=len(lis1)\n\tfor i in range(l):\n\t\tif seats[i]<int(request.args(3)):\n\t\t\tseats.remove(seats1[i])\n\t\t\tprice.remove(price1[i])\n\t\t\tlogo.remove(logo1[i])\n\t\t\tatime.remove(atime1[i])\n\t\t\tdtime.remove(dtime1[i])\n\t\t\tlis.remove(lis1[i])\n\tnew1=[]\n\tfor i in n1:\n\t\tst=""\n\t\tfor j in i:\n\t\t\tst+=str(j)\n\t\t\tst+=\'_\'\n\t\tnew1.append(st[0:-1])\n\treturn dict(lis=lis,seats=seats,new=new,price=price,dtime=dtime,atime=atime,logo=logo,company=company,lis1=lis1,seats1=seats1,new1=new1,price1=price1,dtime1=dtime1,atime1=atime1,logo1=logo1,company1=company1)\n\ndef search():\n\tsession.date=request.args(2)\n\tsrc=db((db.trips.src==request.args(0))&(db.trips.d==request.args(2))&(db.trips.cl==str(request.args(4)))).select()\n\tdest=db((db.trips.dest==request.args(1))&(db.trips.cl==str(request.args(4)))).select()\n    \tif len(src)==0 or len(dest)==0:\n       \t \tsession.flash="No Trips Found! :( "\n        \tredirect(URL(\'index\'))\n\tlis=[]\n\tfor i in range(0,len(dest)):\n\t\tque=dest[i].name\n\t\tfor j in range(len(src)):\n\t\t\tif que==src[j].name:\n\t\t\t\tlis.append(que)\n\tif len(lis)==0:\n\t  \tsession.flash="No trips found!"\n\t  \tredirect(URL(\'index\'))\n\tseats=[]\n\tprice=[]\n\tlogo=[]\n\tdtime=[]\n\tatime=[]\n\tn=[]\n\tcompany=[]\n\tfor i in range(len(lis)):\n\t\tsend=[]\n\t\tsome=db((db.trips.name==lis[i])&(db.trips.src==request.args(0))).select()\n\t\tif len(some):\n\t\t\tsend.append(some[0].id)\n\t\t\tdesti=some[0].dest\n\t\t\tm=some[0].seats\n\t\t\tp=some[0].price\n\t\t\tdtime.append(some[0].departure)\n\t\t\twhile desti!=request.args(1):\n\t\t\t\tsome=db((db.trips.name==lis[i])&(db.trips.src==desti)).select()\n\t\t\t\tif len(some):\t\n\t\t\t\t\tdesti=some[0].dest\n\t\t\t\t\tif some[0].seats<m:\n\t\t\t\t\t\tm=some[0].seats\n\t\t\t\t\tp+=some[0].price\n\t\t\t\t\tsend.append(some[0].id)\n\t\t\t\telse:\n\t\t\t\t\tsession.flash="No trips Found!"\n\t\t\t\t\tredirect(URL(\'index\'))\n\t\t\tatime.append(some[0].arrival)\n\t\t\tn.append(send)\n\t\t\tlogo.append(some[0].logo)\n\t\t\tcompany.append(some[0].company)\n\t\t\tseats.append(m)\n\t\t\tprice.append(p)\n\t\telse:\n\t\t\tsession.flash="No trips found!"\n\t\t\tredirect(URL(\'index\'))\n\tl=len(lis)\n\tfor i in range(l):\n\t\tif seats[i]<int(request.args(3)):\n\t\t\tseats.remove(seats[i])\n\t\t\tprice.remove(price[i])\n\t\t\tlogo.remove(logo[i])\n\t\t\tatime.remove(atime[i])\n\t\t\tdtime.remove(dtime[i])\n\t\t\tlis.remove(lis[i])\n\tnew=[]\n\tfor i in n:\n\t\tst=""\n\t\tfor j in i:\n\t\t\tst+=str(j)\n\t\t\tst+=\'_\'\n\t\tnew.append(st[0:-1])\n\treturn dict(lis=lis,seats=seats,new=new,price=price,dtime=dtime,atime=atime,logo=logo,company=company)\n\nimport time\n@auth.requires_login()\ndef confirm():\n\treturn dict()\t\n\n@auth.requires_login()\t\ndef round_confirm():\n\tflight1=request.vars.flight1.split(\'^\')\n\tflight2=request.vars.flight2.split(\'^\')\n\treturn dict(flight1=flight1,flight2=flight2)\n\ndef round_ticket():\n#\tprint session.date\n#\tprint session.date2\n#\tprint session.seats\n\n\tflight1=request.vars.flight1.split(\'^\')\n\tn1=flight1[len(flight1)-1].split(\'_\') \n\tflight2=request.vars.flight2.split(\'^\')\n\tn2=flight2[len(flight2)-1].split(\'_\')\n\tfor i in range(len(n1)):\n\t\tseats=db(db.trips.id==n1[i]).select()\n\t\tseat=seats[0].seats\n\t\tdb(db.trips.id==n1[i]).update(seats=seat-int(session.seats))\n\tfor i in range(len(n2)):\n\t\tseats=db(db.trips.id==n2[i]).select()\n\t\tseat=seats[0].seats\n\t\tdb(db.trips.id==n2[i]).update(seats=seat-int(session.seats))\n\tdate=datetime.datetime.strptime(session.date,"%Y-%m-%d").date()\n\tarrival=datetime.datetime.strptime(flight1[2],"%H:%M:%S").time()\n\tdepart=datetime.datetime.strptime(flight1[3],"%H:%M:%S").time()\n\tprint date, arrival, depart\n\tdb.flight_bookings.insert(user_id=auth.user.id,d=date,arrival=arrival,depart=depart,lis=flight1[6],price=flight1[5],booked_in=flight1[0],src=request.args(0),dest=request.args(1),cl=request.args(2),num=int(session.seats))\n\tdate=datetime.datetime.strptime(session.date2,"%Y-%m-%d").date()\n\tarrival=datetime.datetime.strptime(flight2[2],"%H:%M:%S").time()\n\tdepart=datetime.datetime.strptime(flight2[3],"%H:%M:%S").time()\n\tprint date, arrival, depart\n\tdb.flight_bookings.insert(user_id=auth.user.id,d=date,arrival=arrival,depart=depart,lis=flight2[6],price=flight2[5],booked_in=flight2[0],src=request.args(1),dest=request.args(0),cl=request.args(2),num=int(session.seats))\n\tredirect(URL(\'index\'))\n\nfrom gluon.tools import Mail\nmail = Mail()\nmail.settings.server = \'smtp.gmail.com:587\'\nmail.settings.sender = \'Traveller\\\'s paradise\'\nmail.settings.login = \'ayushkhandelwal115@gmail.com:ayush115\'\ndef book():\n\tn=request.vars.send\n\tn=request.vars.send.split(\'_\')\n\tred=db((db.trips.name==request.vars.lis)&(db.trips.cl==request.vars.cl)).select()\n\tfor i in range(len(n)):\n\t\tseats=db(db.trips.id==n[i]).select()\n\t\tseat=seats[0].seats\n\t\tdb(db.trips.id==n[i]).update(seats=seat-int(request.vars.seats))\n\tdb.flight_bookings.insert(user_id=auth.user.id,num=request.vars.seats,d=session.date,arrival=request.vars.atime,depart=request.vars.dtime,lis=request.vars.send,price=request.vars.price,booked_in=request.vars.lis,src=request.vars.src,dest=request.vars.dest,cl=request.vars.cl)\n\temail=auth.user.email\n\tmail.send(to=[email],\n\t\t\tsubject=\'Ticket booked!\',\n\t\t\tmessage=\'Flight id :\'+request.vars.lis+\'\\nDeparture time : \'+request.vars.dtime+\'\\nArrival time : \'+request.vars.atime+\'\\nNumber of seats : \'+request.vars.seats+\'\\n\')\n\tsession.flash="Your ticket has been booked!"\n\tredirect(URL(\'index\'))\n\n\ndef bus_booking():\n\tsession.var=3\t\n\tform=SQLFORM.factory(\n\t\t\tField(\'From\',requires=IS_IN_DB(db,db.places.body)),\n\t\t\tField(\'To\',requires=IS_IN_DB(db,db.places.body)),\n\t\t\tField(\'d\',\'date\',label=\'Date of journey\',requires=IS_DATE()),\n\t\t\tField(\'seats\',label=\'Number of passengers\',requires=IS_IN_SET((1,2,3,4,5,6,7,8,9,10))))\n\tif form.accepts(request.vars,session):\n\t\tif form.vars.From == form.vars.To:\n\t\t\tsession.flash="Source and Destination should not be the same!"\n\t\t\tredirect(URL(\'bus_booking\'))\n\t\tif form.vars.d<datetime.date.today():\n\t\t\tsession.flash="Enter a valid date!"\n\t\t\tredirect(URL(\'bus_booking\'))\n\t\telse:\n\t\t\tredirect(URL(\'bus_result\',args=(request.vars.From,request.vars.To,request.vars.d,request.vars.seats)))  \n\treturn dict(form=form)\n\ndef bus_result():\n\tsession.date=request.args(2)\n\tsrc=db((db.bus_trips.src==request.args(0))&(db.bus_trips.d==request.args(2))&(db.bus_trips.seats>int(request.args(3)))).select()\n\tdest=db((db.bus_trips.dest==request.args(1))&(db.bus_trips.seats>int(request.args(3)))).select()\n    \tif len(src)==0 or len(dest)==0:\n       \t \tsession.flash="No Trips Found! :( "\n        \tredirect(URL(\'bus_booking\'))\n\tlis=[]\n\tfor i in range(0,len(dest)):\n\t\tque=dest[i].name\n\t\tfor j in range(len(src)):\n\t\t\tif que==src[j].name:\n\t\t\t\tlis.append(que)\n\tif len(lis)==0:\n\t  \tsession.flash="No trips found!"\n\t  \tredirect(URL(\'bus_booking\'))\n\tseats=[]\n\tprice=[]\n\tlogo=[]\n\tdtime=[]\n\tatime=[]\n\tn=[]\n\tcompany=[]\n\tfor i in range(len(lis)):\n\t\tsend=[]\n\t\tsome=db((db.bus_trips.name==lis[i])&(db.bus_trips.src==request.args(0))).select()\n\t\tif len(some):\n\t\t\tsend.append(some[0].id)\n\t\t\tdesti=some[0].dest\n\t\t\tm=some[0].seats\n\t\t\tp=some[0].price\n\t\t\tdtime.append(some[0].departure)\n\t\t\twhile desti!=request.args(1):\n\t\t\t\tsome=db((db.bus_trips.name==lis[i])&(db.bus_trips.src==desti)).select()\n\t\t\t\tif len(some):\t\n\t\t\t\t\tdesti=some[0].dest\n\t\t\t\t\tif some[0].seats<m:\n\t\t\t\t\t\tm=some[0].seats\n\t\t\t\t\tp+=some[0].price\n\t\t\t\t\tsend.append(some[0].id)\n\t\t\t\telse:\n\t\t\t\t\tsession.flash="No trips Found!"\n\t\t\t\t\tredirect(URL(\'index\'))\n\t\t\tatime.append(some[0].arrival)\n\t\t\tn.append(send)\n\t\t\tlogo.append(some[0].logo)\n\t\t\tcompany.append(some[0].company)\n\t\t\tseats.append(m)\n\t\t\tprice.append(p)\n\t\telse:\n\t\t\tsession.flash="No trips found!"\n\t\t\tredirect(URL(\'bus_booking\'))\n\tnew=[]\n\tfor i in n:\n\t\tst=""\n\t\tfor j in i:\n\t\t\tst+=str(j)\n\t\t\tst+=\'_\'\n\t\tnew.append(st[0:-1])\n\treturn dict(lis=lis,seats=seats,new=new,price=price,dtime=dtime,atime=atime,logo=logo,company=company)\n\ndef bus_confirm():\n\tprint session.date\n\treturn dict()\t\n\n\nfrom gluon.tools import Mail\nmail = Mail()\nmail.settings.server = \'smtp.gmail.com:587\'\nmail.settings.sender = \'Traveller\\\'s paradise\'\nmail.settings.login = \'ayushkhandelwal115@gmail.com:ayush115\'\ndef bus_book():\n\tn=request.vars.send\n\tn=request.vars.send.split(\'_\')\n\tred=db(db.bus_trips.name==request.vars.lis).select()\n\tfor i in range(len(n)):\n\t\tseats=db(db.bus_trips.id==n[i]).select()\n\t\tseat=seats[0].seats\n\t\tdb(db.bus_trips.id==n[i]).update(seats=seat-int(request.vars.seats))\n\tdb.bus_bookings.insert(user_id=auth.user.id,num=request.vars.seats,d=session.date,arrival=request.vars.atime,depart=request.vars.dtime,lis=request.vars.send,price=request.vars.price,booked_in=request.vars.lis,src=request.vars.src,dest=request.vars.dest)\n\temail=auth.user.email\n\tmail.send(to=[email],\n\t\t\tsubject=\'Ticket booked!\',\n\t\t\tmessage=\'Bus id :\'+request.vars.lis+\'\\nDeparture time : \'+request.vars.dtime+\'\\nArrival time : \'+request.vars.atime+\'\\nNumber of seats : \'+request.vars.seats+\'\\n\')\n\tsession.flash="Your ticket has been booked!"\n\tredirect(URL(\'index\'))\n\n@auth.requires_login()\t\ndef manage():\n\tif (auth.user.Member_Type!=\'admin\'):\n\t\tredirect (URL(\'index\'))\n\t\tsession.flash(\'Only the site adin can access this page!\')\n\tform=SQLFORM(db.trips)\n\tif form.accepts(request.vars,session):\n\t\tsession.flash="something"\n\t\tredirect(URL(\'manage\'))\n\tform2=SQLFORM(db.hotels)\n\tif (form.accepts(request.vars,session)):\n\t\tsession.flash="Hotel added!!Good Work"\n\t\tredirect(URL(\'manage\'))\n\tform3=SQLFORM(db.places)\n\tif (form.accepts(request.vars,session)):\n\t\tsession.flash="New Place added in the database!(y)"\n\t\tredirect(URL(\'manage\'))\n\treturn dict(form=form,form2=form2,form3=form3)\n\nimport urllib\nimport json\nfrom pprint import pprint\nimport datetime\ndef hotel_search():\n\tsession.var=4\n\tform=SQLFORM.factory(\n\t\tField(\'city\',requires=IS_IN_DB(db,db.places.body)),\n\t\tField(\'arrivalDate\',\'date\'),\n\t\tField(\'departDate\',\'date\'),\n\t\tField(\'rooms\',\'integer\',requires=IS_IN_SET((1,2,3,4,5))))\n\tif form.accepts(request.vars,session):\n\t\tarrivalDate=form.vars.arrivalDate\n\t\tdepartDate=form.vars.departDate\n#\t\tarrivalDate=str(form.vars.arrivalDate.strftime("%m/%d/%Y"))\n#\t\tdepartDate=str(form.vars.departDate.strftime("%m/%d/%Y"))\n\t\tredirect(URL(r=request,f=\'hotel\',args=(form.vars.city,form.vars.arrivalDate,form.vars.departDate,form.vars.rooms)))\n\treturn dict(form=form)\n\n\nimport re\n\nTAG_RE = re.compile(r\'<[^>]+>\')\n\ndef remove_tags(text):\n\treturn TAG_RE.sub(\'\', text)\n\n\ndef hotel_desc():\n\tsession.var=4\n\tarrivalDate=request.args(1).split(\'-\')\n\tdepartDate=request.args(2).split(\'-\')\n\tadate=arrivalDate[1]+\'/\'+arrivalDate[2]+\'/\'+arrivalDate[0] \n\tddate=departDate[1]+\'/\'+departDate[2]+\'/\'+departDate[0] \n\trooms=""\n\tfor i in range(0,int(request.args(3))):\n\t\trooms+="&room"+str(i+1)+"=2"\n\tlink="http://api.ean.com/ean-services/rs/hotel/v3/avail?&cid=55505&apiKey=nmtccjsdemu6hkg73wcct44t&locale=en_US&currencyCode=INR&hotelId="+request.args(0)+"&arrivalDate="+adate+"&departureDate="+ddate+"&includeDetails=true&includeRoomImages=true"+rooms\n\tlink2="http://api.ean.com/ean-services/rs/hotel/v3/info?cid=55505&apiKey=nmtccjsdemu6hkg73wcct44t&locale=en_US&currencyCode=INR&xml=<HotelInformationRequest><hotelId>"+request.args(0)+"</hotelId><options>0</options></HotelInformationRequest>"\n\ta=urllib.urlopen(link)\n\tdata=json.loads(a.read())\n\ta=urllib.urlopen(link2)\n\tdata2=json.loads(a.read())\n\thotel=data[\'HotelRoomAvailabilityResponse\']\n\tli=data[\'HotelRoomAvailabilityResponse\'][\'HotelRoomResponse\']\n\tdesc=data2[\'HotelInformationResponse\'][\'HotelDetails\'][\'propertyDescription\']\n\trooms=data2[\'HotelInformationResponse\'][\'RoomTypes\']\n\treturn dict(li=li,hotel=hotel,rooms=rooms,desc=desc)\t\n\n@auth.requires_login()\ndef profile():\n\trec=db(auth.user.id==db.auth_user.id).select()\n\tform=crud.update(db.auth_user,auth.user.id)\n\tcrud.settings.update_deletable = False\n\tif (form.process().accepted):\n\t\tredirect(URL(\'profile\'))\n\treturn locals()\n\n@auth.requires_login()\ndef viewbookings():\n        print auth.user.id\n        ctr1=0\n        ctr2=0\n        c1=0\n        c2=0\n        import datetime\n        d1=datetime.date.today()\n        rec=db(db.hotels.user_id==auth.user.id).select(db.hotels.ALL,orderby=db.hotels.checkin)\n        flag1=0\n        flag2=0\n        f1=0\n        f2=0\n        print len(rec),\n        print \'dad\'\n        print ctr1\n        for i in range(len(rec)):\n                print \'i m hrer\'\n                if ((rec[i][\'checkin\']-d1)<datetime.timedelta(0)):\n                        ctr1=ctr1+1 \n                elif ((rec[i][\'checkin\']-d1)>=datetime.timedelta(0)):\n                        c1=c1+1\n        if (ctr1==0):\n                flag1=1\n        if (c1==0):\n                f1=1\n        print flag1\n        flight=db(db.flight_bookings.user_id==auth.user.id).select(db.flight_bookings.ALL,orderby=db.flight_bookings.d)\n        for i in range(len(flight)):\n                if ((flight[i][\'d\']-d1)<datetime.timedelta(0)):\n                        ctr2=ctr2+1 \n                if ((flight[i][\'d\']-d1)>=datetime.timedelta(0)):\n                        c2=c2+1\n        if (ctr2==len(flight)):\n                flag2=1\n        if (c2==len(flight)):\n                f2=1\n        return locals()\n\ndef cheap():\n        getcheap=db().select(db.trips.ALL,orderby=~db.trips.price)\n        sr=""\n        de=""\n        gc=db((db.trips.src==sr) & (db.trips.dest==de)).select(db.trips.ALL,orderby=~db.trips.price)\n        return locals()\n\ndef hotel():\n\tsession.var=4\n\trooms=""\n\tadate=""\n\tddate=""\n\tfor i in range(0,int(request.args(3))):\n\t\trooms+="&room"+str(i+1)+"=2"\n\tarrivalDate=request.args(1).split(\'-\')\n\tdepartDate=request.args(2).split(\'-\')\n\tadate=arrivalDate[1]+\'/\'+arrivalDate[2]+\'/\'+arrivalDate[0] \n\tddate=departDate[1]+\'/\'+departDate[2]+\'/\'+departDate[0] \n\tlink="http://api.ean.com/ean-services/rs/hotel/v3/list?cid=55505&apiKey=nmtccjsdemu6hkg73wcct44t&locale=en_US&currencyCode=INR&city="+request.args(0)+"&countryCode=IN&supplierCacheTolerance=MED&arrivalDate="+adate+"&departureDate="+ddate+rooms+"&numberOfResults=10&supplierCacheTolerance=MED_ENHANCED"\n\ta=urllib.urlopen(link)\n\tdata=json.loads(a.read())\n\tli=data["HotelListResponse"]["HotelList"]["HotelSummary"]\n\treturn dict(li=li,rooms=rooms)\n\ndef hotel_confirm():\n\tsession.var=4\n\tarrivalDate=request.args(1).split(\'-\')\n\tdepartDate=request.args(2).split(\'-\')\n\tadate=arrivalDate[1]+\'/\'+arrivalDate[2]+\'/\'+arrivalDate[0] \n\tddate=departDate[1]+\'/\'+departDate[2]+\'/\'+departDate[0] \n\trooms=""\n\tfor i in range(0,int(request.args(3))):\n\t\trooms+="&room"+str(i+1)+"=2"\n\tlink="http://api.ean.com/ean-services/rs/hotel/v3/avail?&cid=55505&apiKey=nmtccjsdemu6hkg73wcct44t&locale=en_US&currencyCode=INR&hotelId="+request.args(0)+"&arrivalDate="+adate+"&departureDate="+ddate+"&includeDetails=true&includeRoomImages=true"+rooms\n\ta=urllib.urlopen(link)\n\tdata=json.loads(a.read())\n\thotel=data[\'HotelRoomAvailabilityResponse\']\n\tli=hotel[\'HotelRoomResponse\']\n\tfin=[]\n\tfor i in range(len(li)):\n\t\tif str(li[i][\'roomTypeCode\'])==str(request.args(4)):\n\t\t\tfin=li[i]\n\t\t\tbreak\n\treturn dict(hotel=hotel,fin=fin)\n\n@auth.requires_login()\ndef booking_done():\n\tsession.var=4\n\tdb.hotels.insert(user_id=str(auth.user.id),checkin=request.args(1),checkout=request.args(2),hotel_code=request.args(0),room_code=request.args(4),rooms=request.args(3))\n\tredirect(URL(\'index\'))\n\treturn dict()\n\ndef add_flight():\n\tcities=db(db.places.id>0).select(db.places.body)\n\treturn dict(cities=cities)\n\ndef add_new():\n\ta=type("")\n\tsrc=request.vars.src\n\tdest=request.vars.dest\n\tprice=request.vars.price\n\tatime=request.vars.arrival\n\tdtime=request.vars.depart\n\tday=request.vars.day\n\ttmp=[]\n\tif type(src)==a:\n\t\tprint \'yes\'\n\t\ttmp.append(src)\n\t\tsrc=tmp\n\t\ttmp=[]\n\t\ttmp.append(dest)\n\t\tdest=tmp\n\t\ttmp=[]\n\t\ttmp.append(price)\n\t\tprice=tmp\n\t\ttmp=[]\n\t\ttmp.append(atime)\n\t\tatime=tmp\n\t\ttmp=[]\n\t\ttmp.append(dtime)\n\t\tdtime=tmp\n\t\ttmp=[]\n\t\ttmp.append(day)\n\t\tday=tmp\n\tprint src\n\tprint dest\n\tprint atime\n\tprint dtime\n\tseatseconomy=int(request.vars.seatseconomy)\n\tseatsbusiness=int(request.vars.seatsbusiness)\n\tdate=datetime.datetime.strptime(request.vars.d,"%Y-%m-%d")\n\tday_len=len(day)\n\tto=datetime.date.today()\n\tdelta=datetime.timedelta(days=1)\n\twhile(day_len):\n\t\tif to.weekday() in day:\n\t\t\tadd_date.append(to)\n\t\tto+=delta\n\t\tday_len-=1\n\tadd_date=[]\n\tif seatseconomy:\n\t  \ttmp=add_date\n\t  \tfor k in range(52):\n\t  \t\tfor j in tmp:\n\t\t\t\tfor i in range(len(src)):\n\t\t\t\t\tdb.trips.insert(src=src[i],dest=dest[i],d=date,price=price[i],departure=dtime[i],arrival=atime[i],cl=\'Economy\',seats=seatseconomy,company=request.vars.company,name=request.vars.name)\n\t\t\tfor j in tmp:\n\t\t\t\ttmp[j]+=datetime.timedelta(days=7)\n\tif seatsbusiness:\n\t\tfor k in range(52):\n\t\t\ttmp=add_date\n\t\t\tfor j in tmp:\n\t\t\t\tfor i in range(len(src)):\n\t\t\t\t\tdb.trips.insert(src=src[i],dest=dest[i],d=date,price=price[i],departure=dtime[i],arrival=atime[i],cl=\'Business\',seats=seatsbusiness,company=request.vars.company,name=request.vars.name)\n\t\t\tfor j in tmp:\n\t\t\t\ttmp[j]+=datetime.timedelta(days=7)\n\treturn dict()\ndef recent():\n        fl=db().select(db.flight_booking.ALL,orderby=~db.flight_booking.ALL)\n        ht=db().select(db.flight_booking.ALL,orderby=~db.flight_booking.ALL)\n        return locals()\n\nfrom random import randint\ndef advertisement():\n        fl=db().select(db.trips.ALL)\n        l=len(fl)\n        flnum=randint(0,l)\n        ht=db().select(db.trips.ALL)\n        lh=len(ht)\n        htnum=randint(0,lh)\n        return locals()\n\ndef dum():\n#       print "DADSDAS"\n        print "id=",\n        print int(request.args[1])\n        if (int(request.args[0])==1):\n                db(db.hotels.id==int(request.args[1])).delete()\n                email=auth.user.email\n\t        mail.send(to=[email],\n\t\t\t        subject=\'Hotel Cancellation\',\n\t\t\t        message=\'You have Cancelled your booking for the hotel\'+str(request.args[3])+\'which was booked from\'+str(request.args[1])+\'to\'+str(request.args[2])+\'. TheAmount after cutting the cancelation prices will be transfered to you.\' \n                        )\n        elif (int(request.args[0])==0):\n                q=db((db.flight_bookings.id==int(request.args[1]))).select()\n                a=q[0][\'lis\'].split(\'_\')\n                print a[0]+\'ds\'+a[1],\n                print len(a)\n                for i in range(len(a)):\n                        s= db(db.trips.id==int(a[i])).select(db.trips.seats)\n                        db(db.trips.id==int(a[i])).update(seats=s[0][\'seats\']+int(request.args[3]))\n                db(db.flight_bookings.id==int(request.args[1])).delete()\n                email=auth.user.email\n\t        mail.send(to=[email],\n\t\t\t        subject=\'Flight Cancellation\',\n\t\t\t        message=\'Your flight booking for \'+q[0][\'booked_in\']+\' from \'+q[0][\'src\']+\' to \'+q[0][\'dest\']+\' on \'+str(q[0][\'d\'])+\' has been cancelled.\'   \n                        )\n\n        redirect(URL(\'viewbookings\'))\n        \n        return locals()\n\n@auth.requires_login()\ndef profile():\n\trec=db(auth.user.id==db.auth_user.id).select()\n\tform=crud.update(db.auth_user,auth.user.id)\n\tcrud.settings.update_deletable = False\n\tif (form.process().accepted):\n\t\tredirect(URL(\'profile\'))\n\treturn locals()\n\n@auth.requires_login()\ndef flight_review():\n        form=SQLFORM(db.review)\n        form.vars.user_id=auth.user.id\n        if (form.process().accepted):\n                f=form.vars.id\n                rec=db((db.trips.name==form.vars.flight_name)).select(db.trips.Rating)\n                count=db(db.review.flight_name==form.vars.flight_name).select()\n                print \'dsads\',\n                print rec[0][\'Rating\']\n                c=float(len(count))\n                print c\n                x=float((float(form.vars.rating)+(float(rec[0][\'Rating\'])*(c-1)))/c)\n                print x,\n                print \'here\',\n                print x\n                if (c<=0):\n                        db((db.trips.name==form.vars.flight_name)).update(Rating=(rec[0][\'Rating\']+((int(form.vars.rating)))))\n                else:\n                        db((db.trips.name==form.vars.flight_name)).update(Rating=x)\n        return locals()\n\n@auth.requires_login()\ndef viewbookings():\n        print auth.user.id\n        ctr1=0\n        ctr2=0\n        c1=0\n        c2=0\n        import datetime\n        d1=datetime.date.today()\n        rec=db(db.hotels.user_id==auth.user.id).select(db.hotels.ALL,orderby=db.hotels.checkin)\n        flag1=0\n        flag2=0\n        f1=0\n        f2=0\n        print len(rec),\n        print \'dad\'\n        print ctr1\n        for i in range(len(rec)):\n                print \'i m hrer\'\n                if ((rec[i][\'checkin\']-d1)<datetime.timedelta(0)):\n                        ctr1=ctr1+1 \n                elif ((rec[i][\'checkin\']-d1)>=datetime.timedelta(0)):\n                        c1=c1+1\n        if (ctr1==0):\n                flag1=1\n        if (c1==0):\n                f1=1\n        print flag1\n        flight=db(db.flight_bookings.user_id==auth.user.id).select(db.flight_bookings.ALL,orderby=db.flight_bookings.d)\n        for i in range(len(flight)):\n                if ((flight[i][\'d\']-d1)<datetime.timedelta(0)):\n                        ctr2=ctr2+1 \n                if ((flight[i][\'d\']-d1)>=datetime.timedelta(0)):\n                        c2=c2+1\n        if (ctr2==len(flight)):\n                flag2=1\n        if (c2==len(flight)):\n                f2=1\n        return locals()\nimport re\nimport os\nimport bs4\nfrom bs4 import BeautifulSoup\nfrom mechanize import Browser\nbrowser=Browser()\nsoup=\'\'\ndef railway():\n        session.var=2\n\tform=SQLFORM.factory(\n\t\t\tField(\'From\',requires=IS_IN_DB(db,db.rail.body)),\n\t\t\tField(\'To\',requires=IS_IN_DB(db,db.rail.body)),\n\t\t\tField(\'d\',\'date\',label=\'Date of journey\',requires=IS_DATE()))\n        if form.accepts(request.vars,session):\n            if form.vars.From == form.vars.To:\n                session.flash="Source and Destination should not be the same!"\n                redirect(URL(\'index\'))\n            if form.vars.d<datetime.date.today():\n                session.flash="Enter a valid date!"\n                redirect(URL(\'index\'))\n            else:\n                redirect(URL(r=request,f=\'rail\',args=(form.vars.From,form.vars.To,form.vars.d)))\n        return dict(form=form)\ndef rail():\n        browser.open("http://www.indianrail.gov.in/know_Station_Code.html")\n        browser.select_form(nr=0)\n        browser.set_all_readonly(False)\n        source=request.args(0).split(\'_\')\n        browser[\'lccp_src_stncode_dis\']=str(source[-1])\n        browser[\'lccp_src_stncode\']=str(source[-1])\n        dest=request.args(1).split(\'_\')\n        browser[\'lccp_dstn_stncode_dis\']=str(dest[-1])\n        browser[\'lccp_dstn_stncode\']=str(dest[-1])\n        \n        \n\n        browser[\'lccp_classopt\']=[\'ZZ\']\n        p=request.args(2).split(\'-\')\n        browser[\'lccp_day\']=str(p[2])\n        browser[\'lccp_month\']=str(p[1])\n        response=browser.submit()\n        content=response.read()\n       # print content\n        f=\'\'\n        trains=re.findall(\'<INPUT TYPE=.*>.*</TR>\',content,re.DOTALL)\n        for f in trains:\n              f=f.replace(\'lccp_class2\',\'lccp_class1\')\n              f=f.replace(\'lccp_class3\',\'lccp_class1\')\n              f=f.replace(\'lccp_class4\',\'lccp_class1\')\n              f=f.replace(\'lccp_class5\',\'lccp_class1\')\n              f=f.replace(\'lccp_class6\',\'lccp_class1\')\n              f=re.sub(\'<input name=.*?/>\',\'\xe2\x9c\x94\',str(f))\n              f=re.sub(\'<input checked=.*?/>\',\'\xe2\x9c\x94\',str(f))\n        soup=BeautifulSoup(f)\n        soup=re.sub(\'<input name=.*?/>\',\'\xe2\x9c\x94\',str(soup))\n        soup=re.sub(\'<input checked=.*?/>\',\'\xe2\x9c\x94\',str(soup))\n        soup=re.sub(\'<input name=.*?/>\',\'\xe2\x9c\x94\',str(soup))\n        a=re.findall(\'<td>\xe2\x9c\x94\\d+</td>\',soup)\n        q=[]\n        for i in a:\n            q.append(eval(((re.findall(\'\\d+\',i))[0])))\n        #soup=re.sub(\'\xe2\x9c\x94[^\\\\n]\',\' \',str(soup))\n        soup=BeautifulSoup(soup)\n        soup=soup.table\n        if str(soup)=="None":\n            redirect(URL(\'railway\'))\n            session.flash="no trains found"\n        form2=SQLFORM.factory(\n                Field(\'trainno\',label=\'Train Number\',requires=IS_IN_SET(q)),\n                Field(\'Class\',requires=IS_IN_SET([\'1A\',\'2A\',\'3A\',\'CC\',\'3E\',\'SL\',\'2S\'])))\n        qwe=""\n        if form2.accepts(request.vars,session):\n            ab=[]\n            ab.append(form2.vars.Class)\n            qwe=""\n            for i in q:\n                qwe+=str(i)\n                qwe+=\' \'\n            print qwe\n            redirect(URL(r=request,f=\'fare\',args=(form2.vars.trainno,str(p[2]),str(p[1]),str(source[-1]),str(dest[-1]),form2.vars.Class,\'30\',\'ZZZZZZ\',qwe[0:-1])))\n        return dict(soup=soup,q=q,form2=form2)\n\ndef fare():\n        br=Browser()\n        br.open("http://www.indianrail.gov.in/fare_Enq.html")\n        br.select_form(nr=0)\n        ab=[]\n        ab.append(request.args(5))\n        br.set_all_readonly(False)\n        br[\'lccp_trnno\']=str(request.args(0))\n        br[\'lccp_day\']=str(request.args(1))\n        br[\'lccp_month\']=str(request.args(2))\n        br[\'lccp_srccode\']=str(request.args(3))\n        br[\'lccp_dstncode\']=str(request.args(4))\n        br[\'lccp_classopt\']=ab\n        br[\'lccp_age\']=[\'30\']\n        br[\'lccp_conc\']=[\'ZZZZZZ\']\n        response=br.submit()\n        content=response.read()\n        a=re.findall(\'<TR class="heading_table_top">.*</TABLE>\',content,re.DOTALL)\n        for f in a:\n            w=1\n        soup1=BeautifulSoup(f)\n        soup1=soup1.table\n        qwer=request.args(0).split(\' \')\n        form=SQLFORM.factory(\n                    Field(\'t\',label=\'Train Schedule\',requires=IS_IN_SET(qwer)))\n        if form.accepts(request.vars,session):\n                       redirect(URL(r=request,f=\'route\',args=(form.vars.t)))\n        return dict(soup1=XML(soup1),a=request.args(0))\ndef route():\n        br=Browser()\n        br.open("http://www.indianrail.gov.in/inet_trn_num.html")\n        br.select_form(nr=0)\n        br.set_all_readonly(False)\n        br[\'lccp_trnname\']=str(request.vars.a)\n        response=br.submit()\n        content=response.read()\n        route=re.findall(\'<TR class="heading_table_top">.*</TABLE>\',content,re.DOTALL)\n        f=\'\'\n        for f in route:\n            a=1\n        soup=BeautifulSoup(f)\n        soup=soup.table\n        return dict(soup=soup)\n\nresponse._vars=response._caller(fare)\n'
p7
sS'snapshot'
p8
(dp9
S'exception'
p10
(dp11
S'__module__'
p12
S"'mechanize._response'"
p13
sS'_exc_class_name'
p14
S"'urllib2.HTTPError'"
p15
sS'_seek_wrapper__read_complete_state'
p16
S'[False]'
p17
sS'__getslice__'
p18
S"<method-wrapper '__getslice__' of httperror_seek_wrapper object>"
p19
sS'_seek_wrapper__have_readline'
p20
S'True'
p21
sS'__str__'
p22
S'<bound method httperror_seek_wrapper.__str__ of ...20878 whose fp = <socket._fileobject object>>>>>>'
p23
sS'__reduce__'
p24
S'<built-in method __reduce__ of httperror_seek_wrapper object>'
p25
sS'get_data'
p26
S'<bound method httperror_seek_wrapper.get_data of...20878 whose fp = <socket._fileobject object>>>>>>'
p27
sS'strerror'
p28
S'None'
p29
sS'xreadlines'
p30
S'<bound method httperror_seek_wrapper.__iter__ of...20878 whose fp = <socket._fileobject object>>>>>>'
p31
sS'__dict__'
p32
S"{'_headers': <httplib.HTTPMessage instance>, '_seek_wrapper__cache': <cStringIO.StringO object>, '_seek_wrapper__have_readline': True, '_seek_wrapper__is_closed_state': [False], '_seek_wrapper__pos': 0, '_seek_wrapper__read_complete_state': [False], 'filename': 'http://www.indianrail.gov.in/cgi_bin/inet_frenq_cgi.cgi', 'hdrs': <httplib.HTTPMessage instance>, 'wrapped': <closeable_response at 0x7ff0dc220170 whose fp =...c220878 whose fp = <socket._fileobject object>>>>}"
p33
sS'close'
p34
S'<bound method httperror_seek_wrapper.close of <h...20878 whose fp = <socket._fileobject object>>>>>>'
p35
sS'__sizeof__'
p36
S'<built-in method __sizeof__ of httperror_seek_wrapper object>'
p37
sS'next'
p38
S'<bound method httperror_seek_wrapper.next of <ht...20878 whose fp = <socket._fileobject object>>>>>>'
p39
sS'__weakref__'
p40
S'None'
p41
sS'__init__'
p42
S'<bound method httperror_seek_wrapper.__init__ of...20878 whose fp = <socket._fileobject object>>>>>>'
p43
sS'__setattr__'
p44
S'<bound method httperror_seek_wrapper.__setattr__...20878 whose fp = <socket._fileobject object>>>>>>'
p45
sS'__reduce_ex__'
p46
S'<built-in method __reduce_ex__ of httperror_seek_wrapper object>'
p47
sS'__new__'
p48
S'<built-in method __new__ of type object>'
p49
sS'errno'
p50
S'None'
p51
sS'readlines'
p52
S'<bound method httperror_seek_wrapper.readlines o...20878 whose fp = <socket._fileobject object>>>>>>'
p53
sS'__format__'
p54
S'<built-in method __format__ of httperror_seek_wrapper object>'
p55
sS'__class__'
p56
S"<class 'mechanize._response.httperror_seek_wrapper'>"
p57
sS'__getattr__'
p58
S'<bound method httperror_seek_wrapper.__getattr__...20878 whose fp = <socket._fileobject object>>>>>>'
p59
sS'filename'
p60
S'None'
p61
sS'_seek_wrapper__pos'
p62
S'0'
sS'_HTTPError__super_init'
p63
S'<bound method httperror_seek_wrapper.__init__ of...20878 whose fp = <socket._fileobject object>>>>>>'
p64
sS'wrapped'
p65
S'<closeable_response at 0x7ff0dc220170 whose fp =...c220878 whose fp = <socket._fileobject object>>>>'
p66
sS'invariant'
p67
S'<bound method httperror_seek_wrapper.invariant o...20878 whose fp = <socket._fileobject object>>>>>>'
p68
sS'__doc__'
p69
S'None'
p70
sS'hdrs'
p71
S'<httplib.HTTPMessage instance>'
p72
sS'__getitem__'
p73
S"<method-wrapper '__getitem__' of httperror_seek_wrapper object>"
p74
sS'__setstate__'
p75
S'<built-in method __setstate__ of httperror_seek_wrapper object>'
p76
sS'read'
p77
S'<bound method httperror_seek_wrapper.read of <ht...20878 whose fp = <socket._fileobject object>>>>>>'
p78
sS'__getattribute__'
p79
S"<method-wrapper '__getattribute__' of httperror_seek_wrapper object>"
p80
sS'args'
p81
S'()'
p82
sS'_seek_wrapper__is_closed_state'
p83
S'[False]'
p84
sS'__iter__'
p85
S'<bound method httperror_seek_wrapper.__iter__ of...20878 whose fp = <socket._fileobject object>>>>>>'
p86
sS'__subclasshook__'
p87
S'<built-in method __subclasshook__ of type object>'
p88
sS'set_data'
p89
S'<bound method httperror_seek_wrapper.set_data of...20878 whose fp = <socket._fileobject object>>>>>>'
p90
sS'_seek_wrapper__cache'
p91
S'<cStringIO.StringO object>'
p92
sS'readline'
p93
S'<bound method httperror_seek_wrapper.readline of...20878 whose fp = <socket._fileobject object>>>>>>'
p94
sS'__unicode__'
p95
S'<built-in method __unicode__ of httperror_seek_wrapper object>'
p96
sS'info'
p97
S'<bound method httperror_seek_wrapper.info of <ht...20878 whose fp = <socket._fileobject object>>>>>>'
p98
sS'geturl'
p99
S'<bound method httperror_seek_wrapper.geturl of <...20878 whose fp = <socket._fileobject object>>>>>>'
p100
sS'_headers'
p101
S'<httplib.HTTPMessage instance>'
p102
sS'getcode'
p103
S'<bound method httperror_seek_wrapper.getcode of ...20878 whose fp = <socket._fileobject object>>>>>>'
p104
sS'seek'
p105
S'<bound method httperror_seek_wrapper.seek of <ht...20878 whose fp = <socket._fileobject object>>>>>>'
p106
sS'reason'
p107
S"'Bad Gateway'"
p108
sS'tell'
p109
S'<bound method httperror_seek_wrapper.tell of <ht...20878 whose fp = <socket._fileobject object>>>>>>'
p110
sS'__delattr__'
p111
S"<method-wrapper '__delattr__' of httperror_seek_wrapper object>"
p112
sS'__repr__'
p113
S'<bound method httperror_seek_wrapper.__repr__ of...20878 whose fp = <socket._fileobject object>>>>>>'
p114
sS'__hash__'
p115
S"<method-wrapper '__hash__' of httperror_seek_wrapper object>"
p116
sS'__copy__'
p117
S'<bound method httperror_seek_wrapper.__copy__ of...20878 whose fp = <socket._fileobject object>>>>>>'
p118
ssS'evalue'
p119
S'HTTP Error 502: Bad Gateway'
p120
sS'request'
p121
cgluon.html
XML_unpickle
p122
(S's\xa3b\x00\x00<div><table><tr><td style="font-weight:bold;vertical-align:top;">ajax</td><td style="vertical-align:top;">:</td><td><div>False</div></td></tr><tr><td style="font-weight:bold;vertical-align:top;">application</td><td style="vertical-align:top;">:</td><td><div>UIpart</div></td></tr><tr><td style="font-weight:bold;vertical-align:top;">args</td><td style="vertical-align:top;">:</td><td><div><table><tr><td><div>12421</div></td></tr><tr><td><div>16</div></td></tr><tr><td><div>01</div></td></tr><tr><td><div>GWL</div></td></tr><tr><td><div>ASR</div></td></tr><tr><td><div>2A</div></td></tr><tr><td><div>30</div></td></tr><tr><td><div>ZZZZZZ</div></td></tr><tr><td><div>12421_12715_59386_18237_11057</div></td></tr></table></div></td></tr><tr><td style="font-weight:bold;vertical-align:top;">cid</td><td style="vertical-align:top;">:</td><td><div>None</div></td></tr><tr><td style="font-weight:bold;vertical-align:top;">client</td><td style="vertical-align:top;">:</td><td><div>127.0.0.1</div></td></tr><tr><td style="font-weight:bold;vertical-align:top;">controller</td><td style="vertical-align:top;">:</td><td><div>default</div></td></tr><tr><td style="font-weight:bold;vertical-align:top;">cookies</td><td style="vertical-align:top;">:</td><td><div><table><tr><td style="font-weight:bold;vertical-align:top;">session_id_admin</td><td style="vertical-align:top;">:</td><td><div>127.0.0.1-c94c7c22-ebde-4e04-acfe-b4aa464af4ef<table><tr><td style="font-weight:bold;vertical-align:top;">comment</td><td style="vertical-align:top;">:</td><td><div></div></td></tr><tr><td style="font-weight:bold;vertical-align:top;">domain</td><td style="vertical-align:top;">:</td><td><div></div></td></tr><tr><td style="font-weight:bold;vertical-align:top;">expires</td><td style="vertical-align:top;">:</td><td><div></div></td></tr><tr><td style="font-weight:bold;vertical-align:top;">httponly</td><td style="vertical-align:top;">:</td><td><div></div></td></tr><tr><td style="font-weight:bold;vertical-align:top;">max-age</td><td style="vertical-align:top;">:</td><td><div></div></td></tr><tr><td style="font-weight:bold;vertical-align:top;">path</td><td style="vertical-align:top;">:</td><td><div></div></td></tr><tr><td style="font-weight:bold;vertical-align:top;">secure</td><td style="vertical-align:top;">:</td><td><div></div></td></tr><tr><td style="font-weight:bold;vertical-align:top;">version</td><td style="vertical-align:top;">:</td><td><div></div></td></tr></table></div></td></tr><tr><td style="font-weight:bold;vertical-align:top;">session_id_ssad</td><td style="vertical-align:top;">:</td><td><div>127.0.0.1-7830f68a-4544-4df4-b73b-e7749e80dcf1<table><tr><td style="font-weight:bold;vertical-align:top;">comment</td><td style="vertical-align:top;">:</td><td><div></div></td></tr><tr><td style="font-weight:bold;vertical-align:top;">domain</td><td style="vertical-align:top;">:</td><td><div></div></td></tr><tr><td style="font-weight:bold;vertical-align:top;">expires</td><td style="vertical-align:top;">:</td><td><div></div></td></tr><tr><td style="font-weight:bold;vertical-align:top;">httponly</td><td style="vertical-align:top;">:</td><td><div></div></td></tr><tr><td style="font-weight:bold;vertical-align:top;">max-age</td><td style="vertical-align:top;">:</td><td><div></div></td></tr><tr><td style="font-weight:bold;vertical-align:top;">path</td><td style="vertical-align:top;">:</td><td><div></div></td></tr><tr><td style="font-weight:bold;vertical-align:top;">secure</td><td style="vertical-align:top;">:</td><td><div></div></td></tr><tr><td style="font-weight:bold;vertical-align:top;">version</td><td style="vertical-align:top;">:</td><td><div></div></td></tr></table></div></td></tr><tr><td style="font-weight:bold;vertical-align:top;">session_id_uipart</td><td style="vertical-align:top;">:</td><td><div>127.0.0.1-4ad2d30a-4dde-457c-806d-eccfac78bfde<table><tr><td style="font-weight:bold;vertical-align:top;">comment</td><td style="vertical-align:top;">:</td><td><div></div></td></tr><tr><td style="font-weight:bold;vertical-align:top;">domain</td><td style="vertical-align:top;">:</td><td><div></div></td></tr><tr><td style="font-weight:bold;vertical-align:top;">expires</td><td style="vertical-align:top;">:</td><td><div></div></td></tr><tr><td style="font-weight:bold;vertical-align:top;">httponly</td><td style="vertical-align:top;">:</td><td><div></div></td></tr><tr><td style="font-weight:bold;vertical-align:top;">max-age</td><td style="vertical-align:top;">:</td><td><div></div></td></tr><tr><td style="font-weight:bold;vertical-align:top;">path</td><td style="vertical-align:top;">:</td><td><div></div></td></tr><tr><td style="font-weight:bold;vertical-align:top;">secure</td><td style="vertical-align:top;">:</td><td><div></div></td></tr><tr><td style="font-weight:bold;vertical-align:top;">version</td><td style="vertical-align:top;">:</td><td><div></div></td></tr></table></div></td></tr><tr><td style="font-weight:bold;vertical-align:top;">session_id_welcome</td><td style="vertical-align:top;">:</td><td><div>127.0.0.1-5e14e8d3-1d86-449e-9fb8-53d2c1e0d0b6<table><tr><td style="font-weight:bold;vertical-align:top;">comment</td><td style="vertical-align:top;">:</td><td><div></div></td></tr><tr><td style="font-weight:bold;vertical-align:top;">domain</td><td style="vertical-align:top;">:</td><td><div></div></td></tr><tr><td style="font-weight:bold;vertical-align:top;">expires</td><td style="vertical-align:top;">:</td><td><div></div></td></tr><tr><td style="font-weight:bold;vertical-align:top;">httponly</td><td style="vertical-align:top;">:</td><td><div></div></td></tr><tr><td style="font-weight:bold;vertical-align:top;">max-age</td><td style="vertical-align:top;">:</td><td><div></div></td></tr><tr><td style="font-weight:bold;vertical-align:top;">path</td><td style="vertical-align:top;">:</td><td><div></div></td></tr><tr><td style="font-weight:bold;vertical-align:top;">secure</td><td style="vertical-align:top;">:</td><td><div></div></td></tr><tr><td style="font-weight:bold;vertical-align:top;">version</td><td style="vertical-align:top;">:</td><td><div></div></td></tr></table></div></td></tr></table></div></td></tr><tr><td style="font-weight:bold;vertical-align:top;">env</td><td style="vertical-align:top;">:</td><td><div><table><tr><td style="font-weight:bold;vertical-align:top;">HTTP_ACCEPT</td><td style="vertical-align:top;">:</td><td><div>text/html,application/xhtml+xml,application/xml;q=0.9,*/*;q=0.8</div></td></tr><tr><td style="font-weight:bold;vertical-align:top;">HTTP_ACCEPT_ENCODING</td><td style="vertical-align:top;">:</td><td><div>gzip, deflate</div></td></tr><tr><td style="font-weight:bold;vertical-align:top;">HTTP_ACCEPT_LANGUAGE</td><td style="vertical-align:top;">:</td><td><div>en-US,en;q=0.5</div></td></tr><tr><td style="font-weight:bold;vertical-align:top;">HTTP_CONNECTION</td><td style="vertical-align:top;">:</td><td><div>keep-alive</div></td></tr><tr><td style="font-weight:bold;vertical-align:top;">HTTP_COOKIE</td><td style="vertical-align:top;">:</td><td><div>session_id_welcome=127.0.0.1-5e14e8d3-1d86-449e-9fb8-53d2c1e0d0b6; session_id_admin=127.0.0.1-c94c7c22-ebde-4e04-acfe-b4aa464af4ef; session_id_uipart=127.0.0.1-4ad2d30a-4dde-457c-806d-eccfac78bfde; session_id_ssad=127.0.0.1-7830f68a-4544-4df4-b73b-e7749e80dcf1</div></td></tr><tr><td style="font-weight:bold;vertical-align:top;">HTTP_HOST</td><td style="vertical-align:top;">:</td><td><div>127.0.0.1:8000</div></td></tr><tr><td style="font-weight:bold;vertical-align:top;">HTTP_REFERER</td><td style="vertical-align:top;">:</td><td><div>http://127.0.0.1:8000/UIpart/default/rail/Gwalior%20GWL/Amritsar%20JN%20ASR/2014-01-16</div></td></tr><tr><td style="font-weight:bold;vertical-align:top;">HTTP_USER_AGENT</td><td style="vertical-align:top;">:</td><td><div>Mozilla/5.0 (X11; Ubuntu; Linux x86_64; rv:25.0) Gecko/20100101 Firefox/25.0</div></td></tr><tr><td style="font-weight:bold;vertical-align:top;">PATH_INFO</td><td style="vertical-align:top;">:</td><td><div>/UIpart/default/fare/12421/16/01/GWL/ASR/2A/30/ZZZZZZ/12421 12715 59386 18237 11057</div></td></tr><tr><td style="font-weight:bold;vertical-align:top;">QUERY_STRING</td><td style="vertical-align:top;">:</td><td><div></div></td></tr><tr><td style="font-weight:bold;vertical-align:top;">REMOTE_ADDR</td><td style="vertical-align:top;">:</td><td><div>127.0.0.1</div></td></tr><tr><td style="font-weight:bold;vertical-align:top;">REMOTE_PORT</td><td style="vertical-align:top;">:</td><td><div>52511</div></td></tr><tr><td style="font-weight:bold;vertical-align:top;">REQUEST_METHOD</td><td style="vertical-align:top;">:</td><td><div>GET</div></td></tr><tr><td style="font-weight:bold;vertical-align:top;">SCRIPT_NAME</td><td style="vertical-align:top;">:</td><td><div></div></td></tr><tr><td style="font-weight:bold;vertical-align:top;">SERVER_NAME</td><td style="vertical-align:top;">:</td><td><div>prabhsimran-Inspiron-7520</div></td></tr><tr><td style="font-weight:bold;vertical-align:top;">SERVER_PORT</td><td style="vertical-align:top;">:</td><td><div>8000</div></td></tr><tr><td style="font-weight:bold;vertical-align:top;">SERVER_PROTOCOL</td><td style="vertical-align:top;">:</td><td><div>HTTP/1.1</div></td></tr><tr><td style="font-weight:bold;vertical-align:top;">SERVER_SOFTWARE</td><td style="vertical-align:top;">:</td><td><div>Rocket 1.2.6</div></td></tr><tr><td style="font-weight:bold;vertical-align:top;">app_folders</td><td style="vertical-align:top;">:</td><td><div>set([&#x27;/home/prabhsimran/web2py/applications/welcome/&#x27;, &#x27;/home/prabhsimran/web2py/applications/admin/&#x27;, &#x27;/home/prabhsimran/web2py/applications/UIpart/&#x27;, &#x27;/home/prabhsimran/web2py/applications/ssad/&#x27;])</div></td></tr><tr><td style="font-weight:bold;vertical-align:top;">applications_parent</td><td style="vertical-align:top;">:</td><td><div>/home/prabhsimran/web2py</div></td></tr><tr><td style="font-weight:bold;vertical-align:top;">cmd_args</td><td style="vertical-align:top;">:</td><td><div><table></table></div></td></tr><tr><td style="font-weight:bold;vertical-align:top;">cmd_options</td><td style="vertical-align:top;">:</td><td><div>&lt;Values at 0x1b2de18: {&#x27;verbose&#x27;: False, &#x27;ip&#x27;: &#x27;127.0.0.1&#x27;, &#x27;debuglevel&#x27;: 30, &#x27;with_scheduler&#x27;: False, &#x27;ips&#x27;: [&#x27;127.0.1.1&#x27;], &#x27;shutdown_timeout&#x27;: 5, &#x27;taskbar&#x27;: False, &#x27;with_coverage&#x27;: False, &#x27;port&#x27;: 8000, &#x27;maxthreads&#x27;: None, &#x27;softcron&#x27;: False, &#x27;server_name&#x27;: &#x27;prabhsimran-Inspiron-7520&#x27;, &#x27;bpython&#x27;: False, &#x27;nogui&#x27;: False, &#x27;pid_filename&#x27;: &#x27;httpserver.pid&#x27;, &#x27;extcron&#x27;: False, &#x27;runcron&#x27;: False, &#x27;run_system_tests&#x27;: False, &#x27;test&#x27;: None, &#x27;folder&#x27;: &#x27;/home/prabhsimran/web2py&#x27;, &#x27;config&#x27;: &#x27;&#x27;, &#x27;minthreads&#x27;: None, &#x27;winservice&#x27;: &#x27;&#x27;, &#x27;shell&#x27;: None, &#x27;run&#x27;: &#x27;&#x27;, &#x27;log_filename&#x27;: &#x27;httpserver.log&#x27;, &#x27;profiler_dir&#x27;: None, &#x27;args&#x27;: [&#x27;&#x27;], &#x27;socket_timeout&#x27;: 5, &#x27;ssl_ca_certificate&#x27;: None, &#x27;scheduler&#x27;: None, &#x27;interfaces&#x27;: None, &#x27;ssl_private_key&#x27;: &#x27;&#x27;, &#x27;scheduler_groups&#x27;: None, &#x27;password&#x27;: &#x27;&lt;ask&gt;&#x27;, &#x27;request_queue_size&#x27;: 5, &#x27;ssl_certificate&#x27;: &#x27;&#x27;, &#x27;cronjob&#x27;: False, &#x27;numthreads&#x27;: None, &#x27;quiet&#x27;: False, &#x27;import_models&#x27;: False, &#x27;timeout&#x27;: 10, &#x27;plain&#x27;: False, &#x27;nobanner&#x27;: False}&gt;</div></td></tr><tr><td style="font-weight:bold;vertical-align:top;">db_sessions</td><td style="vertical-align:top;">:</td><td><div>set([])</div></td></tr><tr><td style="font-weight:bold;vertical-align:top;">debugging</td><td style="vertical-align:top;">:</td><td><div>True</div></td></tr><tr><td style="font-weight:bold;vertical-align:top;">gluon_parent</td><td style="vertical-align:top;">:</td><td><div>/home/prabhsimran/web2py</div></td></tr><tr><td style="font-weight:bold;vertical-align:top;">http_accept</td><td style="vertical-align:top;">:</td><td><div>text/html,application/xhtml+xml,application/xml;q=0.9,*/*;q=0.8</div></td></tr><tr><td style="font-weight:bold;vertical-align:top;">http_accept_encoding</td><td style="vertical-align:top;">:</td><td><div>gzip, deflate</div></td></tr><tr><td style="font-weight:bold;vertical-align:top;">http_accept_language</td><td style="vertical-align:top;">:</td><td><div>en-US,en;q=0.5</div></td></tr><tr><td style="font-weight:bold;vertical-align:top;">http_connection</td><td style="vertical-align:top;">:</td><td><div>keep-alive</div></td></tr><tr><td style="font-weight:bold;vertical-align:top;">http_cookie</td><td style="vertical-align:top;">:</td><td><div>session_id_welcome=127.0.0.1-5e14e8d3-1d86-449e-9fb8-53d2c1e0d0b6; session_id_admin=127.0.0.1-c94c7c22-ebde-4e04-acfe-b4aa464af4ef; session_id_uipart=127.0.0.1-4ad2d30a-4dde-457c-806d-eccfac78bfde; session_id_ssad=127.0.0.1-7830f68a-4544-4df4-b73b-e7749e80dcf1</div></td></tr><tr><td style="font-weight:bold;vertical-align:top;">http_host</td><td style="vertical-align:top;">:</td><td><div>127.0.0.1:8000</div></td></tr><tr><td style="font-weight:bold;vertical-align:top;">http_referer</td><td style="vertical-align:top;">:</td><td><div>http://127.0.0.1:8000/UIpart/default/rail/Gwalior%20GWL/Amritsar%20JN%20ASR/2014-01-16</div></td></tr><tr><td style="font-weight:bold;vertical-align:top;">http_user_agent</td><td style="vertical-align:top;">:</td><td><div>Mozilla/5.0 (X11; Ubuntu; Linux x86_64; rv:25.0) Gecko/20100101 Firefox/25.0</div></td></tr><tr><td style="font-weight:bold;vertical-align:top;">is_jython</td><td style="vertical-align:top;">:</td><td><div>False</div></td></tr><tr><td style="font-weight:bold;vertical-align:top;">is_pypy</td><td style="vertical-align:top;">:</td><td><div>False</div></td></tr><tr><td style="font-weight:bold;vertical-align:top;">is_source</td><td style="vertical-align:top;">:</td><td><div>True</div></td></tr><tr><td style="font-weight:bold;vertical-align:top;">local_hosts</td><td style="vertical-align:top;">:</td><td><div><table><tr><td><div>::1</div></td></tr><tr><td><div>127.0.1.1</div></td></tr><tr><td><div>::ffff:127.0.0.1</div></td></tr><tr><td><div>127.0.0.1</div></td></tr><tr><td><div>prabhsimran-Inspiron-7520</div></td></tr></table></div></td></tr><tr><td style="font-weight:bold;vertical-align:top;">path_info</td><td style="vertical-align:top;">:</td><td><div>/UIpart/default/fare/12421/16/01/GWL/ASR/2A/30/ZZZZZZ/12421 12715 59386 18237 11057</div></td></tr><tr><td style="font-weight:bold;vertical-align:top;">query_string</td><td style="vertical-align:top;">:</td><td><div></div></td></tr><tr><td style="font-weight:bold;vertical-align:top;">remote_addr</td><td style="vertical-align:top;">:</td><td><div>127.0.0.1</div></td></tr><tr><td style="font-weight:bold;vertical-align:top;">remote_port</td><td style="vertical-align:top;">:</td><td><div>52511</div></td></tr><tr><td style="font-weight:bold;vertical-align:top;">request_method</td><td style="vertical-align:top;">:</td><td><div>GET</div></td></tr><tr><td style="font-weight:bold;vertical-align:top;">request_uri</td><td style="vertical-align:top;">:</td><td><div>/UIpart/default/fare/12421/16/01/GWL/ASR/2A/30/ZZZZZZ/12421 12715 59386 18237 11057</div></td></tr><tr><td style="font-weight:bold;vertical-align:top;">script_name</td><td style="vertical-align:top;">:</td><td><div></div></td></tr><tr><td style="font-weight:bold;vertical-align:top;">server_name</td><td style="vertical-align:top;">:</td><td><div>prabhsimran-Inspiron-7520</div></td></tr><tr><td style="font-weight:bold;vertical-align:top;">server_port</td><td style="vertical-align:top;">:</td><td><div>8000</div></td></tr><tr><td style="font-weight:bold;vertical-align:top;">server_protocol</td><td style="vertical-align:top;">:</td><td><div>HTTP/1.1</div></td></tr><tr><td style="font-weight:bold;vertical-align:top;">server_software</td><td style="vertical-align:top;">:</td><td><div>Rocket 1.2.6</div></td></tr><tr><td style="font-weight:bold;vertical-align:top;">web2py_path</td><td style="vertical-align:top;">:</td><td><div>/home/prabhsimran/web2py</div></td></tr><tr><td style="font-weight:bold;vertical-align:top;">web2py_version</td><td style="vertical-align:top;">:</td><td><div>2.7.4-stable+timestamp.2013.10.14.15.16.29</div></td></tr><tr><td style="font-weight:bold;vertical-align:top;">wsgi.errors</td><td style="vertical-align:top;">:</td><td><div>&lt;open file &#x27;&lt;stderr&gt;&#x27;, mode &#x27;w&#x27; at 0x7ff10a1e11e0&gt;</div></td></tr><tr><td style="font-weight:bold;vertical-align:top;">wsgi.file_wrapper</td><td style="vertical-align:top;">:</td><td><div>&lt;class wsgiref.util.FileWrapper at 0x1a7ce20&gt;</div></td></tr><tr><td style="font-weight:bold;vertical-align:top;">wsgi.input</td><td style="vertical-align:top;">:</td><td><div>&lt;socket._fileobject object at 0x7ff0e424b050&gt;</div></td></tr><tr><td style="font-weight:bold;vertical-align:top;">wsgi.multiprocess</td><td style="vertical-align:top;">:</td><td><div>False</div></td></tr><tr><td style="font-weight:bold;vertical-align:top;">wsgi.multithread</td><td style="vertical-align:top;">:</td><td><div>True</div></td></tr><tr><td style="font-weight:bold;vertical-align:top;">wsgi.run_once</td><td style="vertical-align:top;">:</td><td><div>False</div></td></tr><tr><td style="font-weight:bold;vertical-align:top;">wsgi.url_scheme</td><td style="vertical-align:top;">:</td><td><div>http</div></td></tr><tr><td style="font-weight:bold;vertical-align:top;">wsgi.version</td><td style="vertical-align:top;">:</td><td><div><table><tr><td><div>1</div></td></tr><tr><td><div>0</div></td></tr></table></div></td></tr><tr><td style="font-weight:bold;vertical-align:top;">wsgi_errors</td><td style="vertical-align:top;">:</td><td><div>&lt;open file &#x27;&lt;stderr&gt;&#x27;, mode &#x27;w&#x27; at 0x7ff10a1e11e0&gt;</div></td></tr><tr><td style="font-weight:bold;vertical-align:top;">wsgi_file_wrapper</td><td style="vertical-align:top;">:</td><td><div>&lt;class wsgiref.util.FileWrapper at 0x1a7ce20&gt;</div></td></tr><tr><td style="font-weight:bold;vertical-align:top;">wsgi_input</td><td style="vertical-align:top;">:</td><td><div>&lt;socket._fileobject object at 0x7ff0e424b050&gt;</div></td></tr><tr><td style="font-weight:bold;vertical-align:top;">wsgi_multiprocess</td><td style="vertical-align:top;">:</td><td><div>False</div></td></tr><tr><td style="font-weight:bold;vertical-align:top;">wsgi_multithread</td><td style="vertical-align:top;">:</td><td><div>True</div></td></tr><tr><td style="font-weight:bold;vertical-align:top;">wsgi_run_once</td><td style="vertical-align:top;">:</td><td><div>False</div></td></tr><tr><td style="font-weight:bold;vertical-align:top;">wsgi_url_scheme</td><td style="vertical-align:top;">:</td><td><div>http</div></td></tr><tr><td style="font-weight:bold;vertical-align:top;">wsgi_version</td><td style="vertical-align:top;">:</td><td><div><table><tr><td><div>1</div></td></tr><tr><td><div>0</div></td></tr></table></div></td></tr></table></div></td></tr><tr><td style="font-weight:bold;vertical-align:top;">extension</td><td style="vertical-align:top;">:</td><td><div>html</div></td></tr><tr><td style="font-weight:bold;vertical-align:top;">folder</td><td style="vertical-align:top;">:</td><td><div>/home/prabhsimran/web2py/applications/UIpart/</div></td></tr><tr><td style="font-weight:bold;vertical-align:top;">function</td><td style="vertical-align:top;">:</td><td><div>fare</div></td></tr><tr><td style="font-weight:bold;vertical-align:top;">global_settings</td><td style="vertical-align:top;">:</td><td><div><table><tr><td style="font-weight:bold;vertical-align:top;">app_folders</td><td style="vertical-align:top;">:</td><td><div>set([&#x27;/home/prabhsimran/web2py/applications/welcome/&#x27;, &#x27;/home/prabhsimran/web2py/applications/admin/&#x27;, &#x27;/home/prabhsimran/web2py/applications/UIpart/&#x27;, &#x27;/home/prabhsimran/web2py/applications/ssad/&#x27;])</div></td></tr><tr><td style="font-weight:bold;vertical-align:top;">applications_parent</td><td style="vertical-align:top;">:</td><td><div>/home/prabhsimran/web2py</div></td></tr><tr><td style="font-weight:bold;vertical-align:top;">cmd_args</td><td style="vertical-align:top;">:</td><td><div><table></table></div></td></tr><tr><td style="font-weight:bold;vertical-align:top;">cmd_options</td><td style="vertical-align:top;">:</td><td><div>&lt;Values at 0x1b2de18: {&#x27;verbose&#x27;: False, &#x27;ip&#x27;: &#x27;127.0.0.1&#x27;, &#x27;debuglevel&#x27;: 30, &#x27;with_scheduler&#x27;: False, &#x27;ips&#x27;: [&#x27;127.0.1.1&#x27;], &#x27;shutdown_timeout&#x27;: 5, &#x27;taskbar&#x27;: False, &#x27;with_coverage&#x27;: False, &#x27;port&#x27;: 8000, &#x27;maxthreads&#x27;: None, &#x27;softcron&#x27;: False, &#x27;server_name&#x27;: &#x27;prabhsimran-Inspiron-7520&#x27;, &#x27;bpython&#x27;: False, &#x27;nogui&#x27;: False, &#x27;pid_filename&#x27;: &#x27;httpserver.pid&#x27;, &#x27;extcron&#x27;: False, &#x27;runcron&#x27;: False, &#x27;run_system_tests&#x27;: False, &#x27;test&#x27;: None, &#x27;folder&#x27;: &#x27;/home/prabhsimran/web2py&#x27;, &#x27;config&#x27;: &#x27;&#x27;, &#x27;minthreads&#x27;: None, &#x27;winservice&#x27;: &#x27;&#x27;, &#x27;shell&#x27;: None, &#x27;run&#x27;: &#x27;&#x27;, &#x27;log_filename&#x27;: &#x27;httpserver.log&#x27;, &#x27;profiler_dir&#x27;: None, &#x27;args&#x27;: [&#x27;&#x27;], &#x27;socket_timeout&#x27;: 5, &#x27;ssl_ca_certificate&#x27;: None, &#x27;scheduler&#x27;: None, &#x27;interfaces&#x27;: None, &#x27;ssl_private_key&#x27;: &#x27;&#x27;, &#x27;scheduler_groups&#x27;: None, &#x27;password&#x27;: &#x27;&lt;ask&gt;&#x27;, &#x27;request_queue_size&#x27;: 5, &#x27;ssl_certificate&#x27;: &#x27;&#x27;, &#x27;cronjob&#x27;: False, &#x27;numthreads&#x27;: None, &#x27;quiet&#x27;: False, &#x27;import_models&#x27;: False, &#x27;timeout&#x27;: 10, &#x27;plain&#x27;: False, &#x27;nobanner&#x27;: False}&gt;</div></td></tr><tr><td style="font-weight:bold;vertical-align:top;">db_sessions</td><td style="vertical-align:top;">:</td><td><div>set([])</div></td></tr><tr><td style="font-weight:bold;vertical-align:top;">debugging</td><td style="vertical-align:top;">:</td><td><div>True</div></td></tr><tr><td style="font-weight:bold;vertical-align:top;">gluon_parent</td><td style="vertical-align:top;">:</td><td><div>/home/prabhsimran/web2py</div></td></tr><tr><td style="font-weight:bold;vertical-align:top;">is_jython</td><td style="vertical-align:top;">:</td><td><div>False</div></td></tr><tr><td style="font-weight:bold;vertical-align:top;">is_pypy</td><td style="vertical-align:top;">:</td><td><div>False</div></td></tr><tr><td style="font-weight:bold;vertical-align:top;">is_source</td><td style="vertical-align:top;">:</td><td><div>True</div></td></tr><tr><td style="font-weight:bold;vertical-align:top;">local_hosts</td><td style="vertical-align:top;">:</td><td><div><table><tr><td><div>::1</div></td></tr><tr><td><div>127.0.1.1</div></td></tr><tr><td><div>::ffff:127.0.0.1</div></td></tr><tr><td><div>127.0.0.1</div></td></tr><tr><td><div>prabhsimran-Inspiron-7520</div></td></tr></table></div></td></tr><tr><td style="font-weight:bold;vertical-align:top;">web2py_version</td><td style="vertical-align:top;">:</td><td><div>2.7.4-stable+timestamp.2013.10.14.15.16.29</div></td></tr></table></div></td></tr><tr><td style="font-weight:bold;vertical-align:top;">is_https</td><td style="vertical-align:top;">:</td><td><div>False</div></td></tr><tr><td style="font-weight:bold;vertical-align:top;">is_local</td><td style="vertical-align:top;">:</td><td><div>True</div></td></tr><tr><td style="font-weight:bold;vertical-align:top;">is_restful</td><td style="vertical-align:top;">:</td><td><div>False</div></td></tr><tr><td style="font-weight:bold;vertical-align:top;">now</td><td style="vertical-align:top;">:</td><td><div>datetime.datetime(2013, 12, 2, 7, 26, 46, 421743)</div></td></tr><tr><td style="font-weight:bold;vertical-align:top;">raw_args</td><td style="vertical-align:top;">:</td><td><div>12421/16/01/GWL/ASR/2A/30/ZZZZZZ/12421_12715_59386_18237_11057</div></td></tr><tr><td style="font-weight:bold;vertical-align:top;">raw_extension</td><td style="vertical-align:top;">:</td><td><div>None</div></td></tr><tr><td style="font-weight:bold;vertical-align:top;">url</td><td style="vertical-align:top;">:</td><td><div>/UIpart/default/fare/12421/16/01/GWL/ASR/2A/30/ZZZZZZ/12421 12715 59386 18237 11057</div></td></tr><tr><td style="font-weight:bold;vertical-align:top;">utcnow</td><td style="vertical-align:top;">:</td><td><div>datetime.datetime(2013, 12, 2, 1, 56, 46, 421792)</div></td></tr><tr><td style="font-weight:bold;vertical-align:top;">uuid</td><td style="vertical-align:top;">:</td><td><div>UIpart/127.0.0.1.2013-12-02.07-26-46.9e807ac2-7a58-41bf-96ec-d162ee3d1b1c</div></td></tr><tr><td style="font-weight:bold;vertical-align:top;">wsgi</td><td style="vertical-align:top;">:</td><td><div>&lt;gluon.main.LazyWSGI object at 0x7ff0e0125ed0&gt;</div></td></tr></table></div>'
tRp123
sS'frames'
p124
(lp125
(dp126
S'file'
p127
S'/home/prabhsimran/web2py/gluon/restricted.py'
p128
sS'dump'
p129
(dp130
S'environment'
p131
S"{'A': <class 'gluon.html.A'>, 'ANY_OF': <class 'gluon.validators.ANY_OF'>, 'Auth': <class 'gluon.tools.Auth'>, 'B': <class 'gluon.html.B'>, 'BEAUTIFY': <class 'gluon.html.BEAUTIFY'>, 'BODY': <class 'gluon.html.BODY'>, 'BR': <class 'gluon.html.BR'>, 'BUTTON': <class 'gluon.html.BUTTON'>, 'BeautifulSoup': <class 'bs4.BeautifulSoup'>, 'Browser': <class mechanize._mechanize.Browser>, ...}"
p132
sS'ccode'
p133
S'<code object <module> at 0x7ff0ec1229b0, file "/...ications/UIpart/controllers/default.py", line 12>'
p134
ssS'lnum'
p135
I217
sS'lines'
p136
(dp137
I212
S'    try:'
p138
sI213
S'        if isinstance(code, types.CodeType):'
p139
sI214
S'            ccode = code'
p140
sI215
S'        else:'
p141
sI216
S'            ccode = compile2(code, layer)'
p142
sI217
S'        exec ccode in environment'
p143
sI218
S'    except HTTP:'
p144
sI219
S'        raise'
p145
sI220
S'    except RestrictedError:'
p146
sI221
S'        # do not encapsulate (obfuscate) the original RestrictedError'
p147
ssS'call'
p148
S"(code='# -*- coding: utf-8 -*-\\n# this file is released ...oup=soup)\\n\\nresponse._vars=response._caller(fare)\\n', environment={'A': <class 'gluon.html.A'>, 'ANY_OF': <class 'gluon.validators.ANY_OF'>, 'Auth': <class 'gluon.tools.Auth'>, 'B': <class 'gluon.html.B'>, 'BEAUTIFY': <class 'gluon.html.BEAUTIFY'>, 'BODY': <class 'gluon.html.BODY'>, 'BR': <class 'gluon.html.BR'>, 'BUTTON': <class 'gluon.html.BUTTON'>, 'BeautifulSoup': <class 'bs4.BeautifulSoup'>, 'Browser': <class mechanize._mechanize.Browser>, ...}, layer='/home/prabhsimran/web2py/applications/UIpart/controllers/default.py')"
p149
sS'func'
p150
S'restricted'
p151
sa(dp152
g127
S'/home/prabhsimran/web2py/applications/UIpart/controllers/default.py'
p153
sg129
(dp154
sg135
I948
sg136
(dp155
I937
S"        br['lccp_trnname']=str(request.vars.a)"
p156
sI938
S'        response=br.submit()'
p157
sI939
S'        content=response.read()'
p158
sI940
S'        route=re.findall(\'<TR class="heading_table_top">.*</TABLE>\',content,re.DOTALL)'
p159
sI941
S"        f=''"
p160
sI942
S'        for f in route:'
p161
sI943
S'            a=1'
p162
sI944
S'        soup=BeautifulSoup(f)'
p163
sI945
S'        soup=soup.table'
p164
sI946
S'        return dict(soup=soup)'
p165
ssg148
S'()'
p166
sg150
S'<module>'
p167
sa(dp168
g127
S'/home/prabhsimran/web2py/gluon/globals.py'
p169
sg129
(dp170
S'self'
p171
S'undefined'
p172
sS'f'
S'<function fare>'
p173
ssg135
I372
sg136
(dp174
I367
S'        self.menu = []             # used by the default view layout'
p175
sI368
S'        self.files = []            # used by web2py_ajax.html'
p176
sI369
S'        self.generic_patterns = []  # patterns to allow generic views'
p177
sI370
S"        self.delimiters = ('{{', '}}')"
p178
sI371
S'        self._vars = None'
p179
sI372
S'        self._caller = lambda f: f()'
p180
sI373
S'        self._view_environment = None'
p181
sI374
S'        self._custom_commit = None'
p182
sI375
S'        self._custom_rollback = None'
p183
sI376
S''
ssg148
S'(f=<function fare>)'
p184
sg150
S'<lambda>'
p185
sa(dp186
g127
S'/home/prabhsimran/web2py/applications/UIpart/controllers/default.py'
p187
sg129
(dp188
S'br.submit'
p189
S'<bound method Browser.submit of <mechanize._mechanize.Browser instance>>'
p190
sS'global response'
p191
S"<Storage {'body': <cStringIO.StringO object at 0...at 0x7ff0dc4f8de8>, 'view': 'default/fare.html'}>"
p192
sS'br'
p193
S'<mechanize._mechanize.Browser instance>'
p194
ssg135
I919
sg136
(dp195
I914
S"        br['lccp_srccode']=str(request.args(3))"
p196
sI915
S"        br['lccp_dstncode']=str(request.args(4))"
p197
sI916
S"        br['lccp_classopt']=ab"
p198
sI917
S"        br['lccp_age']=['30']"
p199
sI918
S"        br['lccp_conc']=['ZZZZZZ']"
p200
sI919
S'        response=br.submit()'
p201
sI920
S'        content=response.read()'
p202
sI921
S'        a=re.findall(\'<TR class="heading_table_top">.*</TABLE>\',content,re.DOTALL)'
p203
sI922
S'        for f in a:'
p204
sI923
S'            w=1'
p205
ssg148
S'()'
p206
sg150
S'fare'
p207
sa(dp208
g127
S'/usr/local/lib/python2.7/dist-packages/mechanize/_mechanize.py'
p209
sg129
(dp210
S'self'
p211
S'<mechanize._mechanize.Browser instance>'
p212
sS'args'
p213
S'()'
p214
sS'self.open'
p215
S'<bound method Browser.open of <mechanize._mechanize.Browser instance>>'
p216
sS'self.click'
p217
S'<bound method Browser.click of <mechanize._mechanize.Browser instance>>'
p218
sS'kwds'
p219
S'{}'
p220
ssg135
I541
sg136
(dp221
I544
S'        """Find a link and return a Request object for it.'
p222
sI545
S''
sI536
S'        Arguments are as for mechanize.HTMLForm.click().'
p223
sI537
S''
sI538
S'        Return value is same as for Browser.open().'
p224
sI539
S''
sI540
S'        """'
p225
sI541
S'        return self.open(self.click(*args, **kwds))'
p226
sI542
S''
sI543
S'    def click_link(self, link=None, **kwds):'
p227
ssg148
S'(self=<mechanize._mechanize.Browser instance>, *args=(), **kwds={})'
p228
sg150
S'submit'
p229
sa(dp230
g127
S'/usr/local/lib/python2.7/dist-packages/mechanize/_mechanize.py'
p231
sg129
(dp232
S'url'
p233
S'<mechanize._request.Request instance>'
p234
sS'data'
p235
S'None'
p236
sS'self'
p237
S'<mechanize._mechanize.Browser instance>'
p238
sS'self._mech_open'
p239
S'<bound method Browser._mech_open of <mechanize._mechanize.Browser instance>>'
p240
sS'timeout'
p241
S'<object object>'
p242
ssg135
I203
sg136
(dp243
I198
S'        """'
p244
sI199
S'        return self._mech_open(url, data, visit=False, timeout=timeout)'
p245
sI200
S''
sI201
S'    def open(self, url, data=None,'
p246
sI202
S'             timeout=_sockettimeout._GLOBAL_DEFAULT_TIMEOUT):'
p247
sI203
S'        return self._mech_open(url, data, timeout=timeout)'
p248
sI204
S''
sI205
S'    def _mech_open(self, url, data=None, update_history=True, visit=None,'
p249
sI206
S'                   timeout=_sockettimeout._GLOBAL_DEFAULT_TIMEOUT):'
p250
sI207
S'        try:'
p251
ssg148
S'(self=<mechanize._mechanize.Browser instance>, url=<mechanize._request.Request instance>, data=None, timeout=<object object>)'
p252
sg150
S'open'
p253
sa(dp254
g127
S'/usr/local/lib/python2.7/dist-packages/mechanize/_mechanize.py'
p255
sg129
(dp256
S'response'
p257
S'<httperror_seek_wrapper (urllib2.HTTPError insta...220878 whose fp = <socket._fileobject object>>>>>'
p258
ssg135
I255
sg136
(dp259
I256
S'        return response'
p260
sI257
S''
sI258
S'    def __str__(self):'
p261
sI259
S'        text = []'
p262
sI250
S'            response = copy.copy(self._response)'
p263
sI251
S'        elif response is not None:'
p264
sI252
S'            response = _response.upgrade_response(response)'
p265
sI253
S''
sI254
S'        if not success:'
p266
sI255
S'            raise response'
p267
ssg148
S'(self=<mechanize._mechanize.Browser instance>, url=<mechanize._request.Request instance>, data=None, update_history=True, visit=True, timeout=<object object>)'
p268
sg150
S'_mech_open'
p269
sasS'pyver'
p270
S'Python 2.7.4: /usr/bin/python (prefix: /usr)'
p271
sS'session'
p272
g122
(S's\xc2\r\x00\x00<div><table><tr><td style="font-weight:bold;vertical-align:top;">auth</td><td style="vertical-align:top;">:</td><td><div><table><tr><td style="font-weight:bold;vertical-align:top;">expiration</td><td style="vertical-align:top;">:</td><td><div>3600</div></td></tr><tr><td style="font-weight:bold;vertical-align:top;">hmac_key</td><td style="vertical-align:top;">:</td><td><div>02014d3c-d988-4b78-b995-cc50ef844531</div></td></tr><tr><td style="font-weight:bold;vertical-align:top;">last_visit</td><td style="vertical-align:top;">:</td><td><div>datetime.datetime(2013, 12, 2, 7, 21, 37, 812190)</div></td></tr><tr><td style="font-weight:bold;vertical-align:top;">user</td><td style="vertical-align:top;">:</td><td><div><table><tr><td style="font-weight:bold;vertical-align:top;">City</td><td style="vertical-align:top;">:</td><td><div>Solan</div></td></tr><tr><td style="font-weight:bold;vertical-align:top;">Country</td><td style="vertical-align:top;">:</td><td><div>India</div></td></tr><tr><td style="font-weight:bold;vertical-align:top;">Member_Type</td><td style="vertical-align:top;">:</td><td><div>user</div></td></tr><tr><td style="font-weight:bold;vertical-align:top;">Phone</td><td style="vertical-align:top;">:</td><td><div>98389944L</div></td></tr><tr><td style="font-weight:bold;vertical-align:top;">Username</td><td style="vertical-align:top;">:</td><td><div>PrabhSingh</div></td></tr><tr><td style="font-weight:bold;vertical-align:top;">email</td><td style="vertical-align:top;">:</td><td><div>prabhsimransingh.baweja@students.iiit.ac.in</div></td></tr><tr><td style="font-weight:bold;vertical-align:top;">first_name</td><td style="vertical-align:top;">:</td><td><div>Prabh</div></td></tr><tr><td style="font-weight:bold;vertical-align:top;">id</td><td style="vertical-align:top;">:</td><td><div>14L</div></td></tr><tr><td style="font-weight:bold;vertical-align:top;">last_name</td><td style="vertical-align:top;">:</td><td><div>Baweja</div></td></tr><tr><td style="font-weight:bold;vertical-align:top;">registration_id</td><td style="vertical-align:top;">:</td><td><div></div></td></tr><tr><td style="font-weight:bold;vertical-align:top;">registration_key</td><td style="vertical-align:top;">:</td><td><div></div></td></tr><tr><td style="font-weight:bold;vertical-align:top;">reset_password_key</td><td style="vertical-align:top;">:</td><td><div></div></td></tr></table></div></td></tr><tr><td style="font-weight:bold;vertical-align:top;">user_groups</td><td style="vertical-align:top;">:</td><td><div><table></table></div></td></tr></table></div></td></tr><tr><td style="font-weight:bold;vertical-align:top;">date</td><td style="vertical-align:top;">:</td><td><div>2013-12-18</div></td></tr><tr><td style="font-weight:bold;vertical-align:top;">date2</td><td style="vertical-align:top;">:</td><td><div>2013-12-20</div></td></tr><tr><td style="font-weight:bold;vertical-align:top;">flash</td><td style="vertical-align:top;">:</td><td><div>None</div></td></tr><tr><td style="font-weight:bold;vertical-align:top;">last_orderby</td><td style="vertical-align:top;">:</td><td><div>None</div></td></tr><tr><td style="font-weight:bold;vertical-align:top;">last_query</td><td style="vertical-align:top;">:</td><td><div>db.trips.id&gt;0</div></td></tr><tr><td style="font-weight:bold;vertical-align:top;">seats</td><td style="vertical-align:top;">:</td><td><div>3</div></td></tr><tr><td style="font-weight:bold;vertical-align:top;">var</td><td style="vertical-align:top;">:</td><td><div>2</div></td></tr></table></div>'
tRp273
sS'etype'
p274
S"<class 'mechanize._response.httperror_seek_wrapper'>"
p275
sS'date'
p276
S'Mon Dec  2 07:26:47 2013'
p277
sS'response'
p278
g122
(S's 2\x00\x00<div><table><tr><td style="font-weight:bold;vertical-align:top;">body</td><td style="vertical-align:top;">:</td><td><div>&lt;cStringIO.StringO object at 0x7ff0f835bdc0&gt;</div></td></tr><tr><td style="font-weight:bold;vertical-align:top;">cookies</td><td style="vertical-align:top;">:</td><td><div><table><tr><td style="font-weight:bold;vertical-align:top;">session_id_uipart</td><td style="vertical-align:top;">:</td><td><div>127.0.0.1-4ad2d30a-4dde-457c-806d-eccfac78bfde<table><tr><td style="font-weight:bold;vertical-align:top;">comment</td><td style="vertical-align:top;">:</td><td><div></div></td></tr><tr><td style="font-weight:bold;vertical-align:top;">domain</td><td style="vertical-align:top;">:</td><td><div></div></td></tr><tr><td style="font-weight:bold;vertical-align:top;">expires</td><td style="vertical-align:top;">:</td><td><div></div></td></tr><tr><td style="font-weight:bold;vertical-align:top;">httponly</td><td style="vertical-align:top;">:</td><td><div></div></td></tr><tr><td style="font-weight:bold;vertical-align:top;">max-age</td><td style="vertical-align:top;">:</td><td><div></div></td></tr><tr><td style="font-weight:bold;vertical-align:top;">path</td><td style="vertical-align:top;">:</td><td><div>/</div></td></tr><tr><td style="font-weight:bold;vertical-align:top;">secure</td><td style="vertical-align:top;">:</td><td><div></div></td></tr><tr><td style="font-weight:bold;vertical-align:top;">version</td><td style="vertical-align:top;">:</td><td><div></div></td></tr></table></div></td></tr></table></div></td></tr><tr><td style="font-weight:bold;vertical-align:top;">delimiters</td><td style="vertical-align:top;">:</td><td><div><table><tr><td><div>{{</div></td></tr><tr><td><div>}}</div></td></tr></table></div></td></tr><tr><td style="font-weight:bold;vertical-align:top;">files</td><td style="vertical-align:top;">:</td><td><div><table></table></div></td></tr><tr><td style="font-weight:bold;vertical-align:top;">flash</td><td style="vertical-align:top;">:</td><td><div></div></td></tr><tr><td style="font-weight:bold;vertical-align:top;">generic_patterns</td><td style="vertical-align:top;">:</td><td><div><table><tr><td><div>*</div></td></tr></table></div></td></tr><tr><td style="font-weight:bold;vertical-align:top;">google_analytics_id</td><td style="vertical-align:top;">:</td><td><div>None</div></td></tr><tr><td style="font-weight:bold;vertical-align:top;">headers</td><td style="vertical-align:top;">:</td><td><div><table><tr><td style="font-weight:bold;vertical-align:top;">X-Powered-By</td><td style="vertical-align:top;">:</td><td><div>web2py</div></td></tr></table></div></td></tr><tr><td style="font-weight:bold;vertical-align:top;">logo</td><td style="vertical-align:top;">:</td><td><div><a class="brand" data-w2p_disable_with="default" href="http://www.web2py.com/"><b>web<span>2</span>py</b>&trade;&nbsp;</a></div></td></tr><tr><td style="font-weight:bold;vertical-align:top;">menu</td><td style="vertical-align:top;">:</td><td><div><table><tr><td><div><table><tr><td><div>Home</div></td></tr><tr><td><div>False</div></td></tr><tr><td><div>/UIpart/default/index</div></td></tr><tr><td><div><table></table></div></td></tr></table></div></td></tr><tr><td><div><table><tr><td><div><span class="highlighted">web2py</span></div></td></tr><tr><td><div>False</div></td></tr><tr><td><div>http://web2py.com</div></td></tr><tr><td><div><table><tr><td><div><table><tr><td><div>My Sites</div></td></tr><tr><td><div>False</div></td></tr><tr><td><div>/admin/default/site</div></td></tr></table></div></td></tr><tr><td><div><table><tr><td><div>This App</div></td></tr><tr><td><div>False</div></td></tr><tr><td><div>/admin/default/design/UIpart</div></td></tr><tr><td><div>[(&lt;lazyT &#x27;Controller&#x27;&gt;, False, &#x27;/admin/default/edit/UIpart/controllers/default.py&#x27;), (&lt;lazyT &#x27;View&#x27;&gt;, False, &#x27;/admin/default/edit/UIpart/views/default/fare.html&#x27;), (&lt;lazyT &#x27;Layout&#x27;&gt;, False, &#x27;/admin/default/edit/UIpart/views/layout.html&#x27;), (&lt;lazyT &#x27;Stylesheet&#x27;&gt;, False, &#x27;/admin/default/edit/UIpart/static/css/web2py.css&#x27;), (&lt;lazyT &#x27;DB Model&#x27;&gt;, False, &#x27;/admin/default/edit/UIpart/models/db.py&#x27;), (&lt;lazyT &#x27;Menu Model&#x27;&gt;, False, &#x27;/admin/default/edit/UIpart/models/menu.py&#x27;), (&lt;lazyT &#x27;Database&#x27;&gt;, False, &#x27;/UIpart/appadmin/index&#x27;), (&lt;lazyT &#x27;Errors&#x27;&gt;, False, &#x27;/admin/default/errors/UIpart&#x27;), (&lt;lazyT &#x27;About&#x27;&gt;, False, &#x27;/admin/default/about/UIpart&#x27;)]</div></td></tr></table></div></td></tr><tr><td><div><table><tr><td><div>web2py.com</div></td></tr><tr><td><div>False</div></td></tr><tr><td><div>http://www.web2py.com</div></td></tr><tr><td><div>[(&lt;lazyT &#x27;Download&#x27;&gt;, False, &#x27;http://www.web2py.com/examples/default/download&#x27;), (&lt;lazyT &#x27;Support&#x27;&gt;, False, &#x27;http://www.web2py.com/examples/default/support&#x27;), (&lt;lazyT &#x27;Demo&#x27;&gt;, False, &#x27;http://web2py.com/demo_admin&#x27;), (&lt;lazyT &#x27;Quick Examples&#x27;&gt;, False, &#x27;http://web2py.com/examples/default/examples&#x27;), (&lt;lazyT &#x27;FAQ&#x27;&gt;, False, &#x27;http://web2py.com/AlterEgo&#x27;), (&lt;lazyT &#x27;Videos&#x27;&gt;, False, &#x27;http://www.web2py.com/examples/default/videos/&#x27;), (&lt;lazyT &#x27;Free Applications&#x27;&gt;, False, &#x27;http://web2py.com/appliances&#x27;), (&lt;lazyT &#x27;Plugins&#x27;&gt;, False, &#x27;http://web2py.com/plugins&#x27;), (&lt;lazyT &#x27;Layouts&#x27;&gt;, False, &#x27;http://web2py.com/layouts&#x27;), (&lt;lazyT &#x27;Recipes&#x27;&gt;, False, &#x27;http://web2pyslices.com/&#x27;), (&lt;lazyT &#x27;Semantic&#x27;&gt;, False, &#x27;http://web2py.com/semantic&#x27;)]</div></td></tr></table></div></td></tr><tr><td><div><table><tr><td><div>Documentation</div></td></tr><tr><td><div>False</div></td></tr><tr><td><div>http://www.web2py.com/book</div></td></tr><tr><td><div>[(&lt;lazyT &#x27;Preface&#x27;&gt;, False, &#x27;http://www.web2py.com/book/default/chapter/00&#x27;), (&lt;lazyT &#x27;Introduction&#x27;&gt;, False, &#x27;http://www.web2py.com/book/default/chapter/01&#x27;), (&lt;lazyT &#x27;Python&#x27;&gt;, False, &#x27;http://www.web2py.com/book/default/chapter/02&#x27;), (&lt;lazyT &#x27;Overview&#x27;&gt;, False, &#x27;http://www.web2py.com/book/default/chapter/03&#x27;), (&lt;lazyT &#x27;The Core&#x27;&gt;, False, &#x27;http://www.web2py.com/book/default/chapter/04&#x27;), (&lt;lazyT &#x27;The Views&#x27;&gt;, False, &#x27;http://www.web2py.com/book/default/chapter/05&#x27;), (&lt;lazyT &#x27;Database&#x27;&gt;, False, &#x27;http://www.web2py.com/book/default/chapter/06&#x27;), (&lt;lazyT &#x27;Forms and Validators&#x27;&gt;, False, &#x27;http://www.web2py.com/book/default/chapter/07&#x27;), (&lt;lazyT &#x27;Email and SMS&#x27;&gt;, False, &#x27;http://www.web2py.com/book/default/chapter/08&#x27;), (&lt;lazyT &#x27;Access Control&#x27;&gt;, False, &#x27;http://www.web2py.com/book/default/chapter/09&#x27;), (&lt;lazyT &#x27;Services&#x27;&gt;, False, &#x27;http://www.web2py.com/book/default/chapter/10&#x27;), (&lt;lazyT &#x27;Ajax Recipes&#x27;&gt;, False, &#x27;http://www.web2py.com/book/default/chapter/11&#x27;), (&lt;lazyT &#x27;Components and Plugins&#x27;&gt;, False, &#x27;http://www.web2py.com/book/default/chapter/12&#x27;), (&lt;lazyT &#x27;Deployment Recipes&#x27;&gt;, False, &#x27;http://www.web2py.com/book/default/chapter/13&#x27;), (&lt;lazyT &#x27;Other Recipes&#x27;&gt;, False, &#x27;http://www.web2py.com/book/default/chapter/14&#x27;), (&lt;lazyT &#x27;Buy this book&#x27;&gt;, False, &#x27;http://stores.lulu.com/web2py&#x27;)]</div></td></tr></table></div></td></tr><tr><td><div><table><tr><td><div>Community</div></td></tr><tr><td><div>False</div></td></tr><tr><td><div>None</div></td></tr><tr><td><div>[(&lt;lazyT &#x27;Groups&#x27;&gt;, False, &#x27;http://www.web2py.com/examples/default/usergroups&#x27;), (&lt;lazyT &#x27;Twitter&#x27;&gt;, False, &#x27;http://twitter.com/web2py&#x27;), (&lt;lazyT &#x27;Live Chat&#x27;&gt;, False, &#x27;http://webchat.freenode.net/?channels=web2py&#x27;)]</div></td></tr></table></div></td></tr><tr><td><div><table><tr><td><div>Plugins</div></td></tr><tr><td><div>False</div></td></tr><tr><td><div>None</div></td></tr><tr><td><div>[(&#x27;plugin_wiki&#x27;, False, &#x27;http://web2py.com/examples/default/download&#x27;), (&lt;lazyT &#x27;Other Plugins&#x27;&gt;, False, &#x27;http://web2py.com/plugins&#x27;), (&lt;lazyT &#x27;Layout Plugins&#x27;&gt;, False, &#x27;http://web2py.com/layouts&#x27;)]</div></td></tr></table></div></td></tr></table></div></td></tr></table></div></td></tr></table></div></td></tr><tr><td style="font-weight:bold;vertical-align:top;">meta</td><td style="vertical-align:top;">:</td><td><div><table><tr><td style="font-weight:bold;vertical-align:top;">author</td><td style="vertical-align:top;">:</td><td><div>Your Name &lt;you@example.com&gt;</div></td></tr><tr><td style="font-weight:bold;vertical-align:top;">description</td><td style="vertical-align:top;">:</td><td><div>a cool new app</div></td></tr><tr><td style="font-weight:bold;vertical-align:top;">generator</td><td style="vertical-align:top;">:</td><td><div>Web2py Web Framework</div></td></tr><tr><td style="font-weight:bold;vertical-align:top;">keywords</td><td style="vertical-align:top;">:</td><td><div>web2py, python, framework</div></td></tr></table></div></td></tr><tr><td style="font-weight:bold;vertical-align:top;">models_to_run</td><td style="vertical-align:top;">:</td><td><div><table><tr><td><div>^\\w+\\.py$</div></td></tr><tr><td><div>^default/\\w+\\.py$</div></td></tr><tr><td><div>^default/fare/\\w+\\.py$</div></td></tr></table></div></td></tr><tr><td style="font-weight:bold;vertical-align:top;">postprocessing</td><td style="vertical-align:top;">:</td><td><div><table></table></div></td></tr><tr><td style="font-weight:bold;vertical-align:top;">session_client</td><td style="vertical-align:top;">:</td><td><div>127.0.0.1</div></td></tr><tr><td style="font-weight:bold;vertical-align:top;">session_cookie_compression_level</td><td style="vertical-align:top;">:</td><td><div>None</div></td></tr><tr><td style="font-weight:bold;vertical-align:top;">session_cookie_expires</td><td style="vertical-align:top;">:</td><td><div>None</div></td></tr><tr><td style="font-weight:bold;vertical-align:top;">session_cookie_key</td><td style="vertical-align:top;">:</td><td><div>None</div></td></tr><tr><td style="font-weight:bold;vertical-align:top;">session_data_name</td><td style="vertical-align:top;">:</td><td><div>session_data_uipart</div></td></tr><tr><td style="font-weight:bold;vertical-align:top;">session_file</td><td style="vertical-align:top;">:</td><td><div>&lt;open file &#x27;/home/prabhsimran/web2py/applications/UIpart/sessions/127.0.0.1-4ad2d30a-4dde-457c-806d-eccfac78bfde&#x27;, mode &#x27;rb+&#x27; at 0x7ff0d4125300&gt;</div></td></tr><tr><td style="font-weight:bold;vertical-align:top;">session_filename</td><td style="vertical-align:top;">:</td><td><div>/home/prabhsimran/web2py/applications/UIpart/sessions/127.0.0.1-4ad2d30a-4dde-457c-806d-eccfac78bfde</div></td></tr><tr><td style="font-weight:bold;vertical-align:top;">session_hash</td><td style="vertical-align:top;">:</td><td><div>7e2c76c45ca6fddd8e238c73cb72606e</div></td></tr><tr><td style="font-weight:bold;vertical-align:top;">session_id</td><td style="vertical-align:top;">:</td><td><div>127.0.0.1-4ad2d30a-4dde-457c-806d-eccfac78bfde</div></td></tr><tr><td style="font-weight:bold;vertical-align:top;">session_id_name</td><td style="vertical-align:top;">:</td><td><div>session_id_uipart</div></td></tr><tr><td style="font-weight:bold;vertical-align:top;">session_locked</td><td style="vertical-align:top;">:</td><td><div>True</div></td></tr><tr><td style="font-weight:bold;vertical-align:top;">session_masterapp</td><td style="vertical-align:top;">:</td><td><div>UIpart</div></td></tr><tr><td style="font-weight:bold;vertical-align:top;">session_new</td><td style="vertical-align:top;">:</td><td><div>False</div></td></tr><tr><td style="font-weight:bold;vertical-align:top;">session_storage_type</td><td style="vertical-align:top;">:</td><td><div>file</div></td></tr><tr><td style="font-weight:bold;vertical-align:top;">status</td><td style="vertical-align:top;">:</td><td><div>200</div></td></tr><tr><td style="font-weight:bold;vertical-align:top;">subtitle</td><td style="vertical-align:top;">:</td><td><div>customize me!</div></td></tr><tr><td style="font-weight:bold;vertical-align:top;">title</td><td style="vertical-align:top;">:</td><td><div>Uipart</div></td></tr><tr><td style="font-weight:bold;vertical-align:top;">view</td><td style="vertical-align:top;">:</td><td><div>default/fare.html</div></td></tr></table></div>'
tRp279
sS'locals'
p280
(dp281
S'success'
p282
S'False'
p283
sS'url'
p284
S'<mechanize._request.Request instance>'
p285
sg121
S'<mechanize._request.Request instance>'
p286
sS'self'
p287
S'<mechanize._mechanize.Browser instance>'
p288
sS'visit'
p289
g21
sS'update_history'
p290
g21
sS'timeout'
p291
S'<object object>'
p292
sS'error'
p293
S'HTTPError()'
p294
sS'data'
p295
S'None'
p296
sg278
S'<httperror_seek_wrapper (urllib2.HTTPError insta...220878 whose fp = <socket._fileobject object>>>>>'
p297
sssS'traceback'
p298
S'Traceback (most recent call last):\n  File "/home/prabhsimran/web2py/gluon/restricted.py", line 217, in restricted\n    exec ccode in environment\n  File "/home/prabhsimran/web2py/applications/UIpart/controllers/default.py", line 948, in <module>\n  File "/home/prabhsimran/web2py/gluon/globals.py", line 372, in <lambda>\n    self._caller = lambda f: f()\n  File "/home/prabhsimran/web2py/applications/UIpart/controllers/default.py", line 919, in fare\n    response=br.submit()\n  File "/usr/local/lib/python2.7/dist-packages/mechanize/_mechanize.py", line 541, in submit\n    return self.open(self.click(*args, **kwds))\n  File "/usr/local/lib/python2.7/dist-packages/mechanize/_mechanize.py", line 203, in open\n    return self._mech_open(url, data, timeout=timeout)\n  File "/usr/local/lib/python2.7/dist-packages/mechanize/_mechanize.py", line 255, in _mech_open\n    raise response\nhttperror_seek_wrapper: HTTP Error 502: Bad Gateway\n'
p299
s.