(dp1
S'output'
p2
S"<type 'exceptions.IOError'> [Errno socket error] [Errno 111] Connection refused"
p3
sS'layer'
p4
S'/home/mohanty/web2py/applications/30thdec/controllers/default.py'
p5
sS'code'
p6
S'# -*- coding: utf-8 -*-\n# this file is released under public domain and you can use without limitations\n\n#########################################################################\n## This is a samples controller\n## - index is the default action of any application\n## - user is required for authentication and authorization\n## - download is for downloading files uploaded in the db (does streaming)\n## - call exposes all registered services (none by default)\n#########################################################################\n\ndef index():\n    """\n    example action using the internationalization operator T and flash\n    rendered by views/default/index.html or views/generic.html\n    """\n    response.flash = "Welcome to web2py!"\n    return dict(message=T(\'Hello World\'))\n\ndef user():\n    """\n    exposes:\n    http://..../[app]/default/user/login\n    http://..../[app]/default/user/logout\n    http://..../[app]/default/user/register\n    http://..../[app]/default/user/profile\n    http://..../[app]/default/user/retrieve_password\n    http://..../[app]/default/user/change_password\n    use @auth.requires_login()\n        @auth.requires_membership(\'group name\')\n        @auth.requires_permission(\'read\',\'table name\',record_id)\n    to decorate functions that need access control\n    """\n    return dict(form=auth())\n\n\ndef download():\n    """\n    allows downloading of uploaded files\n    http://..../[app]/default/download/[filename]\n    """\n    return response.download(request,db)\n\n\ndef call():\n    """\n    exposes services. for example:\n    http://..../[app]/default/call/jsonrpc\n    decorate with @services.jsonrpc the functions to expose\n    supports xml, json, xmlrpc, jsonrpc, amfrpc, rss, csv\n    """\n    return service()\n\n\n@auth.requires_signature()\ndef data():\n    """\n    http://..../[app]/default/data/tables\n    http://..../[app]/default/data/create/[table]\n    http://..../[app]/default/data/read/[table]/[id]\n    http://..../[app]/default/data/update/[table]/[id]\n    http://..../[app]/default/data/delete/[table]/[id]\n    http://..../[app]/default/data/select/[table]\n    http://..../[app]/default/data/search/[table]\n    but URLs must be signed, i.e. linked with\n      A(\'table\',_href=URL(\'data/tables\',user_signature=True))\n    or with the signed load operator\n      LOAD(\'default\',\'data.load\',args=\'tables\',ajax=True,user_signature=True)\n    """\n    return dict(form=crud())\n\nimport datetime\ndef index():\n\tform=SQLFORM.factory(\n\t\t\tField(\'From\',requires=IS_IN_DB(db,db.places.body)),\n\t\t\tField(\'To\',requires=IS_IN_DB(db,db.places.body)),\n\t\t\tField(\'d\',\'date\',label=\'Date of journey\',requires=IS_DATE()),\n\t\t\tField(\'Class\',requires=IS_IN_SET([\'Business\',\'Economy\'])),\n\t\t\tField(\'seats\',label=\'Number of passengers\',requires=IS_IN_SET((1,2,3,4,5,6,7,8,9,10))))\n\tif form.accepts(request.vars,session):\n\t\tif form.vars.From == form.vars.To:\n\t\t\tsession.flash="Source and Destination should not be the same!"\n\t\t\tredirect(URL(\'index\'))\n\t\tif form.vars.d<datetime.date.today():\n\t\t\tsession.flash="Enter a valid date!"\n\t\t\tredirect(URL(\'index\'))\n\t\telse:\n\t\t\tredirect(URL(\'search\',args=(request.vars.From,request.vars.To,request.vars.d,request.vars.seats,request.vars.Class)))\n\treturn dict(form=form)\n\ndef search():\n\tsession.date=request.args(2)\n\tsrc=db((db.trips.src==request.args(0))&(db.trips.d==request.args(2))&(db.trips.cl==str(request.args(4)))).select()\n\tdest=db((db.trips.dest==request.args(1))&(db.trips.cl==str(request.args(4)))).select()\n    \tif len(src)==0 or len(dest)==0:\n       \t \tsession.flash="No Trips Found! :( "\n        \tredirect(URL(\'index\'))\n\tlis=[]\n\tfor i in range(0,len(dest)):\n\t\tque=dest[i].name\n\t\tfor j in range(len(src)):\n\t\t\tif que==src[j].name:\n\t\t\t\tlis.append(que)\n\tif len(lis)==0:\n\t  \tsession.flash="No trips found!"\n\t  \tredirect(URL(\'index\'))\n\tseats=[]\n\tprice=[]\n\tlogo=[]\n\tdtime=[]\n\tatime=[]\n\tn=[]\n\tcompany=[]\n\tfor i in range(len(lis)):\n\t\tsend=[]\n\t\tsome=db((db.trips.name==lis[i])&(db.trips.src==request.args(0))).select()\n\t\tif len(some):\n\t\t\tsend.append(some[0].id)\n\t\t\tdesti=some[0].dest\n\t\t\tm=some[0].seats\n\t\t\tp=some[0].price\n\t\t\tdtime.append(some[0].departure)\n\t\t\twhile desti!=request.args(1):\n\t\t\t\tsome=db((db.trips.name==lis[i])&(db.trips.src==desti)).select()\n\t\t\t\tif len(some):\t\n\t\t\t\t\tdesti=some[0].dest\n\t\t\t\t\tif some[0].seats<m:\n\t\t\t\t\t\tm=some[0].seats\n\t\t\t\t\tp+=some[0].price\n\t\t\t\t\tsend.append(some[0].id)\n\t\t\t\telse:\n\t\t\t\t\tsession.flash="No trips Found!"\n\t\t\t\t\tredirect(URL(\'index\'))\n\t\t\tatime.append(some[0].arrival)\n\t\t\tn.append(send)\n\t\t\tlogo.append(some[0].logo)\n\t\t\tcompany.append(some[0].company)\n\t\t\tseats.append(m)\n\t\t\tprice.append(p)\n\t\telse:\n\t\t\tsession.flash="No trips found!"\n\t\t\tredirect(URL(\'index\'))\n\tl=len(lis)\n\tfor i in range(l):\n\t\tif seats[i]<int(request.args(3)):\n\t\t\tseats.remove(seats[i])\n\t\t\tprice.remove(price[i])\n\t\t\tlogo.remove(logo[i])\n\t\t\tatime.remove(atime[i])\n\t\t\tdtime.remove(dtime[i])\n\t\t\tlis.remove(lis[i])\n\tnew=[]\n\tfor i in n:\n\t\tst=""\n\t\tfor j in i:\n\t\t\tst+=str(j)\n\t\t\tst+=\'_\'\n\t\tnew.append(st[0:-1])\n\treturn dict(lis=lis,seats=seats,new=new,price=price,dtime=dtime,atime=atime,logo=logo,company=company)\n\nimport time\n@auth.requires_login()\ndef confirm():\n\tprint session.date\n\treturn dict()\t\n\n\nfrom gluon.tools import Mail\nmail = Mail()\nmail.settings.server = \'smtp.gmail.com:587\'\nmail.settings.sender = \'Traveller\\\'s paradise\'\nmail.settings.login = \'ayushkhandelwal115@gmail.com:ayush115\'\ndef book():\n\tn=request.vars.send\n\tn=request.vars.send.split(\'_\')\n\tred=db((db.trips.name==request.vars.lis)&(db.trips.cl==request.vars.cl)).select()\n\tfor i in range(len(n)):\n\t\tseats=db(db.trips.id==n[i]).select()\n\t\tseat=seats[0].seats\n\t\tdb(db.trips.id==n[i]).update(seats=seat-int(request.vars.seats))\n\tdb.flight_bookings.insert(user_id=auth.user.id,num=request.vars.seats,d=session.date,arrival=request.vars.atime,depart=request.vars.dtime,lis=request.vars.send,price=request.vars.price,booked_in=request.vars.lis,src=request.vars.src,dest=request.vars.dest,cl=request.vars.cl)\n\temail=auth.user.email\n\tmail.send(to=[email],\n\t\t\tsubject=\'Ticket booked!\',\n\t\t\tmessage=\'Flight id :\'+request.vars.lis+\'\\nDeparture time : \'+request.vars.dtime+\'\\nArrival time : \'+request.vars.atime+\'\\nNumber of seats : \'+request.vars.seats+\'\\n\')\n\tsession.flash="Your ticket has been booked!"\n\tredirect(URL(\'index\'))\n\n@auth.requires_login()\t\ndef manage():\n\tif (auth.user.Member_Type!=\'admin\'):\n\t\tredirect (URL(\'index\'))\n\t\tsession.flash(\'Only the site adin can access this page!\')\n\tform=SQLFORM(db.trips)\n\tif form.accepts(request.vars,session):\n\t\tsession.flash="something"\n\t\tredirect(URL(\'manage\'))\n\tform2=SQLFORM(db.hotels)\n\tif (form.accepts(request.vars,session)):\n\t\tsession.flash="Hotel added!!Good Work"\n\t\tredirect(URL(\'manage\'))\n\tform3=SQLFORM(db.places)\n\tif (form.accepts(request.vars,session)):\n\t\tsession.flash="New Place added in the database!(y)"\n\t\tredirect(URL(\'manage\'))\n\treturn dict(form=form,form2=form2,form3=form3)\n\nimport urllib\nimport json\nfrom pprint import pprint\nimport datetime\ndef hotel_search():\n\tform=SQLFORM.factory(\n\t\tField(\'city\',requires=IS_IN_DB(db,db.places.body)),\n\t\tField(\'arrivalDate\',\'date\'),\n\t\tField(\'departDate\',\'date\'),\n\t\tField(\'rooms\',\'integer\',requires=IS_IN_SET((1,2,3,4,5))))\n\tif form.accepts(request.vars,session):\n\t\tarrivalDate=form.vars.arrivalDate\n\t\tdepartDate=form.vars.departDate\n#\t\tarrivalDate=str(form.vars.arrivalDate.strftime("%m/%d/%Y"))\n#\t\tdepartDate=str(form.vars.departDate.strftime("%m/%d/%Y"))\n\t\tredirect(URL(r=request,f=\'hotel\',args=(form.vars.city,form.vars.arrivalDate,form.vars.departDate,form.vars.rooms)))\n\treturn dict(form=form)\n\n\nimport re\n\nTAG_RE = re.compile(r\'<[^>]+>\')\n\ndef remove_tags(text):\n\treturn TAG_RE.sub(\'\', text)\n\n\ndef hotel_desc():\n\tarrivalDate=request.args(1).split(\'-\')\n\tdepartDate=request.args(2).split(\'-\')\n\tadate=arrivalDate[1]+\'/\'+arrivalDate[2]+\'/\'+arrivalDate[0] \n\tddate=departDate[1]+\'/\'+departDate[2]+\'/\'+departDate[0] \n\trooms=""\n\tfor i in range(0,int(request.args(3))):\n\t\trooms+="&room"+str(i+1)+"=2"\n\tlink="http://api.ean.com/ean-services/rs/hotel/v3/avail?&cid=55505&apiKey=nmtccjsdemu6hkg73wcct44t&locale=en_US&currencyCode=INR&hotelId="+request.args(0)+"&arrivalDate="+adate+"&departureDate="+ddate+"&includeDetails=true&includeRoomImages=true"+rooms\n\tlink2="http://api.ean.com/ean-services/rs/hotel/v3/info?cid=55505&apiKey=nmtccjsdemu6hkg73wcct44t&locale=en_US&currencyCode=INR&xml=<HotelInformationRequest><hotelId>"+request.args(0)+"</hotelId><options>0</options></HotelInformationRequest>"\n\ta=urllib.urlopen(link)\n\tdata=json.loads(a.read())\n\ta=urllib.urlopen(link2)\n\tdata2=json.loads(a.read())\n\thotel=data[\'HotelRoomAvailabilityResponse\']\n\tli=data[\'HotelRoomAvailabilityResponse\'][\'HotelRoomResponse\']\n\tdesc=data2[\'HotelInformationResponse\'][\'HotelDetails\'][\'propertyDescription\']\n\trooms=data2[\'HotelInformationResponse\'][\'RoomTypes\']\n\treturn dict(li=li,hotel=hotel,rooms=rooms,desc=desc)\t\n\n@auth.requires_login()\ndef profile():\n\trec=db(auth.user.id==db.auth_user.id).select()\n\tform=crud.update(db.auth_user,auth.user.id)\n\tcrud.settings.update_deletable = False\n\tif (form.process().accepted):\n\t\tredirect(URL(\'profile\'))\n\treturn locals()\n\n@auth.requires_login()\ndef viewbookings():\n        rec=db(db.auth_user.id==auth.user.id).select(db.hotels.ALL,orderby=db.hotels.checkin)\n        flight=db(db.auth_user.id==auth.user.id).select(db.flight_bookings.ALL,orderby=db.flight_bookings.d)\n        return locals()\n\ndef hotel():\n\trooms=""\n\tadate=""\n\tddate=""\n\tfor i in range(0,int(request.args(3))):\n\t\trooms+="&room"+str(i+1)+"=2"\n\tarrivalDate=request.args(1).split(\'-\')\n\tdepartDate=request.args(2).split(\'-\')\n\tadate=arrivalDate[1]+\'/\'+arrivalDate[2]+\'/\'+arrivalDate[0] \n\tddate=departDate[1]+\'/\'+departDate[2]+\'/\'+departDate[0] \n\tlink="http://api.ean.com/ean-services/rs/hotel/v3/list?cid=55505&apiKey=nmtccjsdemu6hkg73wcct44t&locale=en_US&currencyCode=INR&city="+request.args(0)+"&countryCode=IN&supplierCacheTolerance=MED&arrivalDate="+adate+"&departureDate="+ddate+rooms+"&numberOfResults=10&supplierCacheTolerance=MED_ENHANCED"\n\ta=urllib.urlopen(link)\n\tdata=json.loads(a.read())\n\tli=data["HotelListResponse"]["HotelList"]["HotelSummary"]\n\treturn dict(li=li,rooms=rooms)\n\ndef hotel_confirm():\n\tarrivalDate=request.args(1).split(\'-\')\n\tdepartDate=request.args(2).split(\'-\')\n\tadate=arrivalDate[1]+\'/\'+arrivalDate[2]+\'/\'+arrivalDate[0] \n\tddate=departDate[1]+\'/\'+departDate[2]+\'/\'+departDate[0] \n\trooms=""\n\tfor i in range(0,int(request.args(3))):\n\t\trooms+="&room"+str(i+1)+"=2"\n\tlink="http://api.ean.com/ean-services/rs/hotel/v3/avail?&cid=55505&apiKey=nmtccjsdemu6hkg73wcct44t&locale=en_US&currencyCode=INR&hotelId="+request.args(0)+"&arrivalDate="+adate+"&departureDate="+ddate+"&includeDetails=true&includeRoomImages=true"+rooms\n\ta=urllib.urlopen(link)\n\tdata=json.loads(a.read())\n\thotel=data[\'HotelRoomAvailabilityResponse\']\n\tli=hotel[\'HotelRoomResponse\']\n\tfin=[]\n\tfor i in range(len(li)):\n\t\tif str(li[i][\'roomTypeCode\'])==str(request.args(4)):\n\t\t\tfin=li[i]\n\t\t\tbreak\n\treturn dict(hotel=hotel,fin=fin)\n\n@auth.requires_login()\ndef booking_done():\n\tdb.hotels.insert(user_id=str(auth.user.id),checkin=request.args(1),checkout=request.args(2),hotel_code=request.args(0),room_code=request.args(4),rooms=request.args(3))\n\tredirect(URL(\'index\'))\n\treturn dict()\n\nresponse._vars=response._caller(hotel)\n'
p7
sS'snapshot'
p8
(dp9
S'exception'
p10
(dp11
S'__getslice__'
p12
S"<method-wrapper '__getslice__' of exceptions.IOError object>"
p13
sS'__str__'
p14
S"<method-wrapper '__str__' of exceptions.IOError object>"
p15
sS'__reduce__'
p16
S'<built-in method __reduce__ of exceptions.IOError object>'
p17
sS'__dict__'
p18
S'{}'
p19
sS'__sizeof__'
p20
S'<built-in method __sizeof__ of exceptions.IOError object>'
p21
sS'__init__'
p22
S"<method-wrapper '__init__' of exceptions.IOError object>"
p23
sS'__setattr__'
p24
S"<method-wrapper '__setattr__' of exceptions.IOError object>"
p25
sS'__reduce_ex__'
p26
S'<built-in method __reduce_ex__ of exceptions.IOError object>'
p27
sS'__new__'
p28
S'<built-in method __new__ of type object>'
p29
sS'errno'
p30
S"'socket error'"
p31
sS'__format__'
p32
S'<built-in method __format__ of exceptions.IOError object>'
p33
sS'__class__'
p34
S"<type 'exceptions.IOError'>"
p35
sS'filename'
p36
S'None'
p37
sS'__doc__'
p38
S"'I/O operation failed.'"
p39
sS'__getitem__'
p40
S"<method-wrapper '__getitem__' of exceptions.IOError object>"
p41
sS'__setstate__'
p42
S'<built-in method __setstate__ of exceptions.IOError object>'
p43
sS'__getattribute__'
p44
S"<method-wrapper '__getattribute__' of exceptions.IOError object>"
p45
sS'args'
p46
S"('socket error', error(111, 'Connection refused'))"
p47
sS'__subclasshook__'
p48
S'<built-in method __subclasshook__ of type object>'
p49
sS'__unicode__'
p50
S'<built-in method __unicode__ of exceptions.IOError object>'
p51
sS'strerror'
p52
S"error(111, 'Connection refused')"
p53
sS'__delattr__'
p54
S"<method-wrapper '__delattr__' of exceptions.IOError object>"
p55
sS'__repr__'
p56
S"<method-wrapper '__repr__' of exceptions.IOError object>"
p57
sS'__hash__'
p58
S"<method-wrapper '__hash__' of exceptions.IOError object>"
p59
ssS'evalue'
p60
S'[Errno socket error] [Errno 111] Connection refused'
p61
sS'request'
p62
cgluon.html
XML_unpickle
p63
(S's\'U\x00\x00<div><table><tr><td style="font-weight:bold;vertical-align:top">ajax</td><td valign="top">:</td><td><div>False</div></td></tr><tr><td style="font-weight:bold;vertical-align:top">application</td><td valign="top">:</td><td><div>30thdec</div></td></tr><tr><td style="font-weight:bold;vertical-align:top">args</td><td valign="top">:</td><td><div><table><tr><td><div>Indore</div></td></tr><tr><td><div>2013-12-12</div></td></tr><tr><td><div>2013-12-17</div></td></tr><tr><td><div>1</div></td></tr></table></div></td></tr><tr><td style="font-weight:bold;vertical-align:top">body</td><td valign="top">:</td><td><div>&lt;cStringIO.StringO object at 0x7f92505686f8&gt;</div></td></tr><tr><td style="font-weight:bold;vertical-align:top">cid</td><td valign="top">:</td><td><div>None</div></td></tr><tr><td style="font-weight:bold;vertical-align:top">client</td><td valign="top">:</td><td><div>127.0.0.1</div></td></tr><tr><td style="font-weight:bold;vertical-align:top">controller</td><td valign="top">:</td><td><div>default</div></td></tr><tr><td style="font-weight:bold;vertical-align:top">cookies</td><td valign="top">:</td><td><div><table><tr><td style="font-weight:bold;vertical-align:top">session_id_30thdec</td><td valign="top">:</td><td><div>127.0.0.1-6010333f-1e35-4746-940a-92d8f9478d29<table><tr><td style="font-weight:bold;vertical-align:top">comment</td><td valign="top">:</td><td><div></div></td></tr><tr><td style="font-weight:bold;vertical-align:top">domain</td><td valign="top">:</td><td><div></div></td></tr><tr><td style="font-weight:bold;vertical-align:top">expires</td><td valign="top">:</td><td><div></div></td></tr><tr><td style="font-weight:bold;vertical-align:top">httponly</td><td valign="top">:</td><td><div></div></td></tr><tr><td style="font-weight:bold;vertical-align:top">max-age</td><td valign="top">:</td><td><div></div></td></tr><tr><td style="font-weight:bold;vertical-align:top">path</td><td valign="top">:</td><td><div></div></td></tr><tr><td style="font-weight:bold;vertical-align:top">secure</td><td valign="top">:</td><td><div></div></td></tr><tr><td style="font-weight:bold;vertical-align:top">version</td><td valign="top">:</td><td><div></div></td></tr></table></div></td></tr><tr><td style="font-weight:bold;vertical-align:top">session_id_admin</td><td valign="top">:</td><td><div>127.0.0.1-4e758c3f-41dd-4e62-860d-66066d7217fa<table><tr><td style="font-weight:bold;vertical-align:top">comment</td><td valign="top">:</td><td><div></div></td></tr><tr><td style="font-weight:bold;vertical-align:top">domain</td><td valign="top">:</td><td><div></div></td></tr><tr><td style="font-weight:bold;vertical-align:top">expires</td><td valign="top">:</td><td><div></div></td></tr><tr><td style="font-weight:bold;vertical-align:top">httponly</td><td valign="top">:</td><td><div></div></td></tr><tr><td style="font-weight:bold;vertical-align:top">max-age</td><td valign="top">:</td><td><div></div></td></tr><tr><td style="font-weight:bold;vertical-align:top">path</td><td valign="top">:</td><td><div></div></td></tr><tr><td style="font-weight:bold;vertical-align:top">secure</td><td valign="top">:</td><td><div></div></td></tr><tr><td style="font-weight:bold;vertical-align:top">version</td><td valign="top">:</td><td><div></div></td></tr></table></div></td></tr><tr><td style="font-weight:bold;vertical-align:top">session_id_welcome</td><td valign="top">:</td><td><div>127.0.0.1-c63f5852-b879-4d31-8498-3e92558143c3<table><tr><td style="font-weight:bold;vertical-align:top">comment</td><td valign="top">:</td><td><div></div></td></tr><tr><td style="font-weight:bold;vertical-align:top">domain</td><td valign="top">:</td><td><div></div></td></tr><tr><td style="font-weight:bold;vertical-align:top">expires</td><td valign="top">:</td><td><div></div></td></tr><tr><td style="font-weight:bold;vertical-align:top">httponly</td><td valign="top">:</td><td><div></div></td></tr><tr><td style="font-weight:bold;vertical-align:top">max-age</td><td valign="top">:</td><td><div></div></td></tr><tr><td style="font-weight:bold;vertical-align:top">path</td><td valign="top">:</td><td><div></div></td></tr><tr><td style="font-weight:bold;vertical-align:top">secure</td><td valign="top">:</td><td><div></div></td></tr><tr><td style="font-weight:bold;vertical-align:top">version</td><td valign="top">:</td><td><div></div></td></tr></table></div></td></tr></table></div></td></tr><tr><td style="font-weight:bold;vertical-align:top">env</td><td valign="top">:</td><td><div><table><tr><td style="font-weight:bold;vertical-align:top">app_folders</td><td valign="top">:</td><td><div>set([&#x27;/home/mohanty/web2py/applications/welcome/&#x27;, &#x27;/home/mohanty/web2py/applications/30thdec/&#x27;, &#x27;/home/mohanty/web2py/applications/admin/&#x27;])</div></td></tr><tr><td style="font-weight:bold;vertical-align:top">applications_parent</td><td valign="top">:</td><td><div>/home/mohanty/web2py</div></td></tr><tr><td style="font-weight:bold;vertical-align:top">cmd_args</td><td valign="top">:</td><td><div><table></table></div></td></tr><tr><td style="font-weight:bold;vertical-align:top">cmd_options</td><td valign="top">:</td><td><div>&lt;Values at 0x28bb560: {&#x27;verbose&#x27;: False, &#x27;ip&#x27;: &#x27;127.0.0.1&#x27;, &#x27;with_scheduler&#x27;: False, &#x27;ips&#x27;: [&#x27;127.0.1.1&#x27;], &#x27;shutdown_timeout&#x27;: 5, &#x27;taskbar&#x27;: False, &#x27;with_coverage&#x27;: False, &#x27;port&#x27;: 8000, &#x27;maxthreads&#x27;: None, &#x27;softcron&#x27;: False, &#x27;server_name&#x27;: &#x27;mohanty-Inspiron-N5110&#x27;, &#x27;bpython&#x27;: False, &#x27;nogui&#x27;: False, &#x27;pid_filename&#x27;: &#x27;httpserver.pid&#x27;, &#x27;extcron&#x27;: False, &#x27;runcron&#x27;: False, &#x27;run_system_tests&#x27;: False, &#x27;test&#x27;: None, &#x27;folder&#x27;: &#x27;/home/mohanty/web2py&#x27;, &#x27;config&#x27;: &#x27;&#x27;, &#x27;minthreads&#x27;: None, &#x27;winservice&#x27;: &#x27;&#x27;, &#x27;shell&#x27;: None, &#x27;run&#x27;: &#x27;&#x27;, &#x27;log_filename&#x27;: &#x27;httpserver.log&#x27;, &#x27;debuglevel&#x27;: 30, &#x27;args&#x27;: [&#x27;&#x27;], &#x27;socket_timeout&#x27;: 5, &#x27;ssl_ca_certificate&#x27;: None, &#x27;scheduler&#x27;: None, &#x27;profiler_filename&#x27;: None, &#x27;ssl_private_key&#x27;: &#x27;&#x27;, &#x27;scheduler_groups&#x27;: None, &#x27;password&#x27;: &#x27;&lt;ask&gt;&#x27;, &#x27;request_queue_size&#x27;: 5, &#x27;ssl_certificate&#x27;: &#x27;&#x27;, &#x27;cronjob&#x27;: False, &#x27;numthreads&#x27;: None, &#x27;quiet&#x27;: False, &#x27;interfaces&#x27;: None, &#x27;import_models&#x27;: False, &#x27;timeout&#x27;: 10, &#x27;plain&#x27;: False, &#x27;nobanner&#x27;: False}&gt;</div></td></tr><tr><td style="font-weight:bold;vertical-align:top">db_sessions</td><td valign="top">:</td><td><div>set([])</div></td></tr><tr><td style="font-weight:bold;vertical-align:top">debugging</td><td valign="top">:</td><td><div>True</div></td></tr><tr><td style="font-weight:bold;vertical-align:top">gluon_parent</td><td valign="top">:</td><td><div>/home/mohanty/web2py</div></td></tr><tr><td style="font-weight:bold;vertical-align:top">http_accept</td><td valign="top">:</td><td><div>text/html,application/xhtml+xml,application/xml;q=0.9,*/*;q=0.8</div></td></tr><tr><td style="font-weight:bold;vertical-align:top">http_accept_encoding</td><td valign="top">:</td><td><div>gzip, deflate</div></td></tr><tr><td style="font-weight:bold;vertical-align:top">http_accept_language</td><td valign="top">:</td><td><div>en-US,en;q=0.5</div></td></tr><tr><td style="font-weight:bold;vertical-align:top">http_connection</td><td valign="top">:</td><td><div>keep-alive</div></td></tr><tr><td style="font-weight:bold;vertical-align:top">http_cookie</td><td valign="top">:</td><td><div>session_id_welcome=127.0.0.1-c63f5852-b879-4d31-8498-3e92558143c3; session_id_admin=127.0.0.1-4e758c3f-41dd-4e62-860d-66066d7217fa; session_id_30thdec=127.0.0.1-6010333f-1e35-4746-940a-92d8f9478d29</div></td></tr><tr><td style="font-weight:bold;vertical-align:top">http_host</td><td valign="top">:</td><td><div>127.0.0.1:8000</div></td></tr><tr><td style="font-weight:bold;vertical-align:top">http_referer</td><td valign="top">:</td><td><div>http://127.0.0.1:8000/30thdec/default/hotel_search</div></td></tr><tr><td style="font-weight:bold;vertical-align:top">http_user_agent</td><td valign="top">:</td><td><div>Mozilla/5.0 (X11; Ubuntu; Linux x86_64; rv:20.0) Gecko/20100101 Firefox/20.0</div></td></tr><tr><td style="font-weight:bold;vertical-align:top">is_jython</td><td valign="top">:</td><td><div>False</div></td></tr><tr><td style="font-weight:bold;vertical-align:top">is_pypy</td><td valign="top">:</td><td><div>False</div></td></tr><tr><td style="font-weight:bold;vertical-align:top">local_hosts</td><td valign="top">:</td><td><div><table><tr><td><div>::1</div></td></tr><tr><td><div>127.0.1.1</div></td></tr><tr><td><div>::ffff:127.0.0.1</div></td></tr><tr><td><div>127.0.0.1</div></td></tr><tr><td><div>mohanty-Inspiron-N5110</div></td></tr></table></div></td></tr><tr><td style="font-weight:bold;vertical-align:top">path_info</td><td valign="top">:</td><td><div>/30thdec/default/hotel/Indore/2013-12-12/2013-12-17/1</div></td></tr><tr><td style="font-weight:bold;vertical-align:top">query_string</td><td valign="top">:</td><td><div></div></td></tr><tr><td style="font-weight:bold;vertical-align:top">remote_addr</td><td valign="top">:</td><td><div>127.0.0.1</div></td></tr><tr><td style="font-weight:bold;vertical-align:top">remote_port</td><td valign="top">:</td><td><div>47292</div></td></tr><tr><td style="font-weight:bold;vertical-align:top">request_method</td><td valign="top">:</td><td><div>GET</div></td></tr><tr><td style="font-weight:bold;vertical-align:top">request_uri</td><td valign="top">:</td><td><div>/30thdec/default/hotel/Indore/2013-12-12/2013-12-17/1</div></td></tr><tr><td style="font-weight:bold;vertical-align:top">script_name</td><td valign="top">:</td><td><div></div></td></tr><tr><td style="font-weight:bold;vertical-align:top">server_name</td><td valign="top">:</td><td><div>mohanty-Inspiron-N5110</div></td></tr><tr><td style="font-weight:bold;vertical-align:top">server_port</td><td valign="top">:</td><td><div>8000</div></td></tr><tr><td style="font-weight:bold;vertical-align:top">server_protocol</td><td valign="top">:</td><td><div>HTTP/1.1</div></td></tr><tr><td style="font-weight:bold;vertical-align:top">server_software</td><td valign="top">:</td><td><div>Rocket 1.2.6</div></td></tr><tr><td style="font-weight:bold;vertical-align:top">web2py_path</td><td valign="top">:</td><td><div>/home/mohanty/web2py</div></td></tr><tr><td style="font-weight:bold;vertical-align:top">web2py_version</td><td valign="top">:</td><td><div>2.5.1-stable+timestamp.2013.06.06.15.39.19</div></td></tr><tr><td style="font-weight:bold;vertical-align:top">wsgi_errors</td><td valign="top">:</td><td><div>&lt;open file &#x27;&lt;stderr&gt;&#x27;, mode &#x27;w&#x27; at 0x7f927d5be1e0&gt;</div></td></tr><tr><td style="font-weight:bold;vertical-align:top">wsgi_file_wrapper</td><td valign="top">:</td><td><div>&lt;class wsgiref.util.FileWrapper at 0x288cd50&gt;</div></td></tr><tr><td style="font-weight:bold;vertical-align:top">wsgi_input</td><td valign="top">:</td><td><div>&lt;socket._fileobject object at 0x7f9250312a50&gt;</div></td></tr><tr><td style="font-weight:bold;vertical-align:top">wsgi_multiprocess</td><td valign="top">:</td><td><div>False</div></td></tr><tr><td style="font-weight:bold;vertical-align:top">wsgi_multithread</td><td valign="top">:</td><td><div>True</div></td></tr><tr><td style="font-weight:bold;vertical-align:top">wsgi_run_once</td><td valign="top">:</td><td><div>False</div></td></tr><tr><td style="font-weight:bold;vertical-align:top">wsgi_url_scheme</td><td valign="top">:</td><td><div>http</div></td></tr><tr><td style="font-weight:bold;vertical-align:top">wsgi_version</td><td valign="top">:</td><td><div><table><tr><td><div>1</div></td></tr><tr><td><div>0</div></td></tr></table></div></td></tr></table></div></td></tr><tr><td style="font-weight:bold;vertical-align:top">extension</td><td valign="top">:</td><td><div>html</div></td></tr><tr><td style="font-weight:bold;vertical-align:top">folder</td><td valign="top">:</td><td><div>/home/mohanty/web2py/applications/30thdec/</div></td></tr><tr><td style="font-weight:bold;vertical-align:top">function</td><td valign="top">:</td><td><div>hotel</div></td></tr><tr><td style="font-weight:bold;vertical-align:top">get_vars</td><td valign="top">:</td><td><div><table></table></div></td></tr><tr><td style="font-weight:bold;vertical-align:top">global_settings</td><td valign="top">:</td><td><div><table><tr><td style="font-weight:bold;vertical-align:top">app_folders</td><td valign="top">:</td><td><div>set([&#x27;/home/mohanty/web2py/applications/welcome/&#x27;, &#x27;/home/mohanty/web2py/applications/30thdec/&#x27;, &#x27;/home/mohanty/web2py/applications/admin/&#x27;])</div></td></tr><tr><td style="font-weight:bold;vertical-align:top">applications_parent</td><td valign="top">:</td><td><div>/home/mohanty/web2py</div></td></tr><tr><td style="font-weight:bold;vertical-align:top">cmd_args</td><td valign="top">:</td><td><div><table></table></div></td></tr><tr><td style="font-weight:bold;vertical-align:top">cmd_options</td><td valign="top">:</td><td><div>&lt;Values at 0x28bb560: {&#x27;verbose&#x27;: False, &#x27;ip&#x27;: &#x27;127.0.0.1&#x27;, &#x27;with_scheduler&#x27;: False, &#x27;ips&#x27;: [&#x27;127.0.1.1&#x27;], &#x27;shutdown_timeout&#x27;: 5, &#x27;taskbar&#x27;: False, &#x27;with_coverage&#x27;: False, &#x27;port&#x27;: 8000, &#x27;maxthreads&#x27;: None, &#x27;softcron&#x27;: False, &#x27;server_name&#x27;: &#x27;mohanty-Inspiron-N5110&#x27;, &#x27;bpython&#x27;: False, &#x27;nogui&#x27;: False, &#x27;pid_filename&#x27;: &#x27;httpserver.pid&#x27;, &#x27;extcron&#x27;: False, &#x27;runcron&#x27;: False, &#x27;run_system_tests&#x27;: False, &#x27;test&#x27;: None, &#x27;folder&#x27;: &#x27;/home/mohanty/web2py&#x27;, &#x27;config&#x27;: &#x27;&#x27;, &#x27;minthreads&#x27;: None, &#x27;winservice&#x27;: &#x27;&#x27;, &#x27;shell&#x27;: None, &#x27;run&#x27;: &#x27;&#x27;, &#x27;log_filename&#x27;: &#x27;httpserver.log&#x27;, &#x27;debuglevel&#x27;: 30, &#x27;args&#x27;: [&#x27;&#x27;], &#x27;socket_timeout&#x27;: 5, &#x27;ssl_ca_certificate&#x27;: None, &#x27;scheduler&#x27;: None, &#x27;profiler_filename&#x27;: None, &#x27;ssl_private_key&#x27;: &#x27;&#x27;, &#x27;scheduler_groups&#x27;: None, &#x27;password&#x27;: &#x27;&lt;ask&gt;&#x27;, &#x27;request_queue_size&#x27;: 5, &#x27;ssl_certificate&#x27;: &#x27;&#x27;, &#x27;cronjob&#x27;: False, &#x27;numthreads&#x27;: None, &#x27;quiet&#x27;: False, &#x27;interfaces&#x27;: None, &#x27;import_models&#x27;: False, &#x27;timeout&#x27;: 10, &#x27;plain&#x27;: False, &#x27;nobanner&#x27;: False}&gt;</div></td></tr><tr><td style="font-weight:bold;vertical-align:top">db_sessions</td><td valign="top">:</td><td><div>set([])</div></td></tr><tr><td style="font-weight:bold;vertical-align:top">debugging</td><td valign="top">:</td><td><div>True</div></td></tr><tr><td style="font-weight:bold;vertical-align:top">gluon_parent</td><td valign="top">:</td><td><div>/home/mohanty/web2py</div></td></tr><tr><td style="font-weight:bold;vertical-align:top">is_jython</td><td valign="top">:</td><td><div>False</div></td></tr><tr><td style="font-weight:bold;vertical-align:top">is_pypy</td><td valign="top">:</td><td><div>False</div></td></tr><tr><td style="font-weight:bold;vertical-align:top">local_hosts</td><td valign="top">:</td><td><div><table><tr><td><div>::1</div></td></tr><tr><td><div>127.0.1.1</div></td></tr><tr><td><div>::ffff:127.0.0.1</div></td></tr><tr><td><div>127.0.0.1</div></td></tr><tr><td><div>mohanty-Inspiron-N5110</div></td></tr></table></div></td></tr><tr><td style="font-weight:bold;vertical-align:top">web2py_version</td><td valign="top">:</td><td><div>2.5.1-stable+timestamp.2013.06.06.15.39.19</div></td></tr></table></div></td></tr><tr><td style="font-weight:bold;vertical-align:top">is_https</td><td valign="top">:</td><td><div>False</div></td></tr><tr><td style="font-weight:bold;vertical-align:top">is_local</td><td valign="top">:</td><td><div>True</div></td></tr><tr><td style="font-weight:bold;vertical-align:top">is_restful</td><td valign="top">:</td><td><div>False</div></td></tr><tr><td style="font-weight:bold;vertical-align:top">now</td><td valign="top">:</td><td><div>datetime.datetime(2013, 12, 1, 2, 45, 45, 367547)</div></td></tr><tr><td style="font-weight:bold;vertical-align:top">post_vars</td><td valign="top">:</td><td><div><table></table></div></td></tr><tr><td style="font-weight:bold;vertical-align:top">raw_args</td><td valign="top">:</td><td><div>Indore/2013-12-12/2013-12-17/1</div></td></tr><tr><td style="font-weight:bold;vertical-align:top">raw_extension</td><td valign="top">:</td><td><div>None</div></td></tr><tr><td style="font-weight:bold;vertical-align:top">url</td><td valign="top">:</td><td><div>/30thdec/default/hotel/Indore/2013-12-12/2013-12-17/1</div></td></tr><tr><td style="font-weight:bold;vertical-align:top">utcnow</td><td valign="top">:</td><td><div>datetime.datetime(2013, 11, 30, 21, 15, 45, 367606)</div></td></tr><tr><td style="font-weight:bold;vertical-align:top">uuid</td><td valign="top">:</td><td><div>30thdec/127.0.0.1.2013-12-01.02-45-45.35d282a9-8ab1-45e2-b0c8-383c2149c262</div></td></tr><tr><td style="font-weight:bold;vertical-align:top">vars</td><td valign="top">:</td><td><div><table></table></div></td></tr><tr><td style="font-weight:bold;vertical-align:top">wsgi</td><td valign="top">:</td><td><div><table><tr><td style="font-weight:bold;vertical-align:top">environ</td><td valign="top">:</td><td><div><table><tr><td style="font-weight:bold;vertical-align:top">HTTP_ACCEPT</td><td valign="top">:</td><td><div>text/html,application/xhtml+xml,application/xml;q=0.9,*/*;q=0.8</div></td></tr><tr><td style="font-weight:bold;vertical-align:top">HTTP_ACCEPT_ENCODING</td><td valign="top">:</td><td><div>gzip, deflate</div></td></tr><tr><td style="font-weight:bold;vertical-align:top">HTTP_ACCEPT_LANGUAGE</td><td valign="top">:</td><td><div>en-US,en;q=0.5</div></td></tr><tr><td style="font-weight:bold;vertical-align:top">HTTP_CONNECTION</td><td valign="top">:</td><td><div>keep-alive</div></td></tr><tr><td style="font-weight:bold;vertical-align:top">HTTP_COOKIE</td><td valign="top">:</td><td><div>session_id_welcome=127.0.0.1-c63f5852-b879-4d31-8498-3e92558143c3; session_id_admin=127.0.0.1-4e758c3f-41dd-4e62-860d-66066d7217fa; session_id_30thdec=127.0.0.1-6010333f-1e35-4746-940a-92d8f9478d29</div></td></tr><tr><td style="font-weight:bold;vertical-align:top">HTTP_HOST</td><td valign="top">:</td><td><div>127.0.0.1:8000</div></td></tr><tr><td style="font-weight:bold;vertical-align:top">HTTP_REFERER</td><td valign="top">:</td><td><div>http://127.0.0.1:8000/30thdec/default/hotel_search</div></td></tr><tr><td style="font-weight:bold;vertical-align:top">HTTP_USER_AGENT</td><td valign="top">:</td><td><div>Mozilla/5.0 (X11; Ubuntu; Linux x86_64; rv:20.0) Gecko/20100101 Firefox/20.0</div></td></tr><tr><td style="font-weight:bold;vertical-align:top">PATH_INFO</td><td valign="top">:</td><td><div>/30thdec/default/hotel/Indore/2013-12-12/2013-12-17/1</div></td></tr><tr><td style="font-weight:bold;vertical-align:top">QUERY_STRING</td><td valign="top">:</td><td><div></div></td></tr><tr><td style="font-weight:bold;vertical-align:top">REMOTE_ADDR</td><td valign="top">:</td><td><div>127.0.0.1</div></td></tr><tr><td style="font-weight:bold;vertical-align:top">REMOTE_PORT</td><td valign="top">:</td><td><div>47292</div></td></tr><tr><td style="font-weight:bold;vertical-align:top">REQUEST_METHOD</td><td valign="top">:</td><td><div>GET</div></td></tr><tr><td style="font-weight:bold;vertical-align:top">REQUEST_URI</td><td valign="top">:</td><td><div>/30thdec/default/hotel/Indore/2013-12-12/2013-12-17/1</div></td></tr><tr><td style="font-weight:bold;vertical-align:top">SCRIPT_NAME</td><td valign="top">:</td><td><div></div></td></tr><tr><td style="font-weight:bold;vertical-align:top">SERVER_NAME</td><td valign="top">:</td><td><div>mohanty-Inspiron-N5110</div></td></tr><tr><td style="font-weight:bold;vertical-align:top">SERVER_PORT</td><td valign="top">:</td><td><div>8000</div></td></tr><tr><td style="font-weight:bold;vertical-align:top">SERVER_PROTOCOL</td><td valign="top">:</td><td><div>HTTP/1.1</div></td></tr><tr><td style="font-weight:bold;vertical-align:top">SERVER_SOFTWARE</td><td valign="top">:</td><td><div>Rocket 1.2.6</div></td></tr><tr><td style="font-weight:bold;vertical-align:top">wsgi.errors</td><td valign="top">:</td><td><div>&lt;open file &#x27;&lt;stderr&gt;&#x27;, mode &#x27;w&#x27; at 0x7f927d5be1e0&gt;</div></td></tr><tr><td style="font-weight:bold;vertical-align:top">wsgi.file_wrapper</td><td valign="top">:</td><td><div>&lt;class wsgiref.util.FileWrapper at 0x288cd50&gt;</div></td></tr><tr><td style="font-weight:bold;vertical-align:top">wsgi.input</td><td valign="top">:</td><td><div>&lt;cStringIO.StringO object at 0x7f92505686f8&gt;</div></td></tr><tr><td style="font-weight:bold;vertical-align:top">wsgi.multiprocess</td><td valign="top">:</td><td><div>False</div></td></tr><tr><td style="font-weight:bold;vertical-align:top">wsgi.multithread</td><td valign="top">:</td><td><div>True</div></td></tr><tr><td style="font-weight:bold;vertical-align:top">wsgi.run_once</td><td valign="top">:</td><td><div>False</div></td></tr><tr><td style="font-weight:bold;vertical-align:top">wsgi.url_scheme</td><td valign="top">:</td><td><div>http</div></td></tr><tr><td style="font-weight:bold;vertical-align:top">wsgi.version</td><td valign="top">:</td><td><div>1</div></td></tr></table></div></td></tr></table></div></td></tr></table></div>'
tRp64
sS'frames'
p65
(lp66
(dp67
S'file'
p68
S'/home/mohanty/web2py/gluon/restricted.py'
p69
sS'dump'
p70
(dp71
S'environment'
p72
S"{'A': <class 'gluon.html.A'>, 'ANY_OF': <class 'gluon.validators.ANY_OF'>, 'Auth': <class 'gluon.tools.Auth'>, 'B': <class 'gluon.html.B'>, 'BEAUTIFY': <class 'gluon.html.BEAUTIFY'>, 'BODY': <class 'gluon.html.BODY'>, 'BR': <class 'gluon.html.BR'>, 'BUTTON': <class 'gluon.html.BUTTON'>, 'CAT': <class 'gluon.html.CAT'>, 'CENTER': <class 'gluon.html.CENTER'>, ...}"
p73
sS'ccode'
p74
S'<code object <module> at 0x7f926c3fb1b0, file "/...cations/30thdec/controllers/default.py", line 12>'
p75
ssS'lnum'
p76
I212
sS'lines'
p77
(dp78
I207
S'    try:'
p79
sI208
S'        if isinstance(code, types.CodeType):'
p80
sI209
S'            ccode = code'
p81
sI210
S'        else:'
p82
sI211
S'            ccode = compile2(code, layer)'
p83
sI212
S'        exec ccode in environment'
p84
sI213
S'    except HTTP:'
p85
sI214
S'        raise'
p86
sI215
S'    except RestrictedError:'
p87
sI216
S'        # do not encapsulate (obfuscate) the original RestrictedError'
p88
ssS'call'
p89
S"(code='# -*- coding: utf-8 -*-\\n# this file is released ...n dict()\\n\\nresponse._vars=response._caller(hotel)\\n', environment={'A': <class 'gluon.html.A'>, 'ANY_OF': <class 'gluon.validators.ANY_OF'>, 'Auth': <class 'gluon.tools.Auth'>, 'B': <class 'gluon.html.B'>, 'BEAUTIFY': <class 'gluon.html.BEAUTIFY'>, 'BODY': <class 'gluon.html.BODY'>, 'BR': <class 'gluon.html.BR'>, 'BUTTON': <class 'gluon.html.BUTTON'>, 'CAT': <class 'gluon.html.CAT'>, 'CENTER': <class 'gluon.html.CENTER'>, ...}, layer='/home/mohanty/web2py/applications/30thdec/controllers/default.py')"
p90
sS'func'
p91
S'restricted'
p92
sa(dp93
g68
S'/home/mohanty/web2py/applications/30thdec/controllers/default.py'
p94
sg70
(dp95
sg76
I312
sg77
(dp96
I301
S"\t\tif str(li[i]['roomTypeCode'])==str(request.args(4)):"
p97
sI302
S'\t\t\tfin=li[i]'
p98
sI303
S'\t\t\tbreak'
p99
sI304
S'\treturn dict(hotel=hotel,fin=fin)'
p100
sI305
S''
sI306
S'@auth.requires_login()'
p101
sI307
S'def booking_done():'
p102
sI308
S'\tdb.hotels.insert(user_id=str(auth.user.id),checkin=request.args(1),checkout=request.args(2),hotel_code=request.args(0),room_code=request.args(4),rooms=request.args(3))'
p103
sI309
S"\tredirect(URL('index'))"
p104
sI310
S'\treturn dict()'
p105
ssg89
S'()'
p106
sg91
S'<module>'
p107
sa(dp108
g68
S'/home/mohanty/web2py/gluon/globals.py'
p109
sg70
(dp110
S'self'
p111
S'undefined'
p112
sS'f'
S'<function hotel>'
p113
ssg76
I194
sg77
(dp114
I192
S"        self.delimiters = ('{{', '}}')"
p115
sI193
S'        self._vars = None'
p116
sI194
S'        self._caller = lambda f: f()'
p117
sI195
S'        self._view_environment = None'
p118
sI196
S'        self._custom_commit = None'
p119
sI197
S'        self._custom_rollback = None'
p120
sI198
S''
sI189
S'        self.menu = []             # used by the default view layout'
p121
sI190
S'        self.files = []            # used by web2py_ajax.html'
p122
sI191
S'        self.generic_patterns = []  # patterns to allow generic views'
p123
ssg89
S'(f=<function hotel>)'
p124
sg91
S'<lambda>'
p125
sa(dp126
g68
S'/home/mohanty/web2py/applications/30thdec/controllers/default.py'
p127
sg70
(dp128
S'a'
g112
sS'global urllib'
p129
S"<module 'urllib' from '/usr/lib/python2.7/urllib.pyc'>"
p130
sS'urllib.urlopen'
p131
S'<function urlopen>'
p132
sS'link'
p133
S"'http://api.ean.com/ean-services/rs/hotel/v3/list...rOfResults=10&supplierCacheTolerance=MED_ENHANCED'"
p134
ssg76
I281
sg77
(dp135
I276
S"\tarrivalDate=request.args(1).split('-')"
p136
sI277
S"\tdepartDate=request.args(2).split('-')"
p137
sI278
S"\tadate=arrivalDate[1]+'/'+arrivalDate[2]+'/'+arrivalDate[0]"
p138
sI279
S"\tddate=departDate[1]+'/'+departDate[2]+'/'+departDate[0]"
p139
sI280
S'\tlink="http://api.ean.com/ean-services/rs/hotel/v3/list?cid=55505&apiKey=nmtccjsdemu6hkg73wcct44t&locale=en_US&currencyCode=INR&city="+request.args(0)+"&countryCode=IN&supplierCacheTolerance=MED&arrivalDate="+adate+"&departureDate="+ddate+rooms+"&numberOfResults=10&supplierCacheTolerance=MED_ENHANCED"'
p140
sI281
S'\ta=urllib.urlopen(link)'
p141
sI282
S'\tdata=json.loads(a.read())'
p142
sI283
S'\tli=data["HotelListResponse"]["HotelList"]["HotelSummary"]'
p143
sI284
S'\treturn dict(li=li,rooms=rooms)'
p144
sI285
S''
ssg89
S'()'
p145
sg91
S'hotel'
p146
sa(dp147
g68
S'/usr/lib/python2.7/urllib.py'
p148
sg70
(dp149
S'url'
p150
S"'http://api.ean.com/ean-services/rs/hotel/v3/list...rOfResults=10&supplierCacheTolerance=MED_ENHANCED'"
p151
sS'opener'
p152
S'<gluon.contrib.autolinks.VimeoURLOpener instance>'
p153
sS'opener.open'
p154
S'<bound method VimeoURLOpener.open of <gluon.contrib.autolinks.VimeoURLOpener instance>>'
p155
ssg76
I87
sg77
(dp156
I82
S'        opener = FancyURLopener()'
p157
sI83
S'        _urlopener = opener'
p158
sI84
S'    else:'
p159
sI85
S'        opener = _urlopener'
p160
sI86
S'    if data is None:'
p161
sI87
S'        return opener.open(url)'
p162
sI88
S'    else:'
p163
sI89
S'        return opener.open(url, data)'
p164
sI90
S'def urlretrieve(url, filename=None, reporthook=None, data=None):'
p165
sI91
S'    global _urlopener'
p166
ssg89
S"(url='http://api.ean.com/ean-services/rs/hotel/v3/list...rOfResults=10&supplierCacheTolerance=MED_ENHANCED', data=None, proxies=None)"
p167
sg91
S'urlopen'
p168
sa(dp169
g68
S'/usr/lib/python2.7/urllib.py'
p170
sg70
(dp171
S'url'
p172
S"'//api.ean.com/ean-services/rs/hotel/v3/list?cid=...rOfResults=10&supplierCacheTolerance=MED_ENHANCED'"
p173
sS'self'
p174
S'<gluon.contrib.autolinks.VimeoURLOpener instance>'
p175
sS'builtingetattr'
p176
S'<built-in function getattr>'
p177
sS'name'
p178
S"'open_http'"
p179
ssg76
I208
sg77
(dp180
I203
S'                return self.open_unknown_proxy(proxy, fullurl, data)'
p181
sI204
S'            else:'
p182
sI205
S'                return self.open_unknown(fullurl, data)'
p183
sI206
S'        try:'
p184
sI207
S'            if data is None:'
p185
sI208
S'                return getattr(self, name)(url)'
p186
sI209
S'            else:'
p187
sI210
S'                return getattr(self, name)(url, data)'
p188
sI211
S'        except socket.error, msg:'
p189
sI212
S"            raise IOError, ('socket error', msg), sys.exc_info()[2]"
p190
ssg89
S"(self=<gluon.contrib.autolinks.VimeoURLOpener instance>, fullurl='http://api.ean.com/ean-services/rs/hotel/v3/list...rOfResults=10&supplierCacheTolerance=MED_ENHANCED', data=None)"
p191
sg91
S'open'
p192
sa(dp193
g68
S'/usr/lib/python2.7/urllib.py'
p194
sg70
(dp195
S'h'
S'<httplib.HTTP instance>'
p196
sS'data'
p197
S'None'
p198
sS'h.endheaders'
p199
S'<bound method HTTPConnection.endheaders of <httplib.HTTPConnection instance>>'
p200
ssg76
I345
sg77
(dp201
I340
S"            h.putrequest('GET', selector)"
p202
sI341
S"        if proxy_auth: h.putheader('Proxy-Authorization', 'Basic %s' % proxy_auth)"
p203
sI342
S"        if auth: h.putheader('Authorization', 'Basic %s' % auth)"
p204
sI343
S"        if realhost: h.putheader('Host', realhost)"
p205
sI344
S'        for args in self.addheaders: h.putheader(*args)'
p206
sI345
S'        h.endheaders(data)'
p207
sI346
S'        errcode, errmsg, headers = h.getreply()'
p208
sI347
S'        fp = h.getfile()'
p209
sI348
S'        if errcode == -1:'
p210
sI349
S'            if fp: fp.close()'
p211
ssg89
S"(self=<gluon.contrib.autolinks.VimeoURLOpener instance>, url='//api.ean.com/ean-services/rs/hotel/v3/list?cid=...rOfResults=10&supplierCacheTolerance=MED_ENHANCED', data=None)"
p212
sg91
S'open_http'
p213
sa(dp214
g68
S'/usr/lib/python2.7/httplib.py'
p215
sg70
(dp216
S'message_body'
p217
S'None'
p218
sS'self'
p219
S'<httplib.HTTPConnection instance>'
p220
sS'self._send_output'
p221
S'<bound method HTTPConnection._send_output of <httplib.HTTPConnection instance>>'
p222
ssg76
I969
sg77
(dp223
I964
S'        """'
p224
sI965
S'        if self.__state == _CS_REQ_STARTED:'
p225
sI966
S'            self.__state = _CS_REQ_SENT'
p226
sI967
S'        else:'
p227
sI968
S'            raise CannotSendHeader()'
p228
sI969
S'        self._send_output(message_body)'
p229
sI970
S''
sI971
S'    def request(self, method, url, body=None, headers={}):'
p230
sI972
S'        """Send a complete request to the server."""'
p231
sI973
S'        self._send_request(method, url, body, headers)'
p232
ssg89
S'(self=<httplib.HTTPConnection instance>, message_body=None)'
p233
sg91
S'endheaders'
p234
sa(dp235
g68
S'/usr/lib/python2.7/httplib.py'
p236
sg70
(dp237
S'msg'
p238
S"'GET /ean-services/rs/hotel/v3/list?cid=55505&api...0\\r\\nHost: api.ean.com\\r\\nUser-Agent: Mozilla/4.0\\r\\n\\r\\n'"
p239
sS'self'
p240
S'<httplib.HTTPConnection instance>'
p241
sS'self.send'
p242
S'<bound method HTTPConnection.send of <httplib.HTTPConnection instance>>'
p243
ssg76
I829
sg77
(dp244
I832
S'            #we must run the risk of Nagle'
p245
sI833
S'            self.send(message_body)'
p246
sI824
S'        # it will avoid performance problems caused by the interaction'
p247
sI825
S'        # between delayed ack and the Nagle algorithm.'
p248
sI826
S'        if isinstance(message_body, str):'
p249
sI827
S'            msg += message_body'
p250
sI828
S'            message_body = None'
p251
sI829
S'        self.send(msg)'
p252
sI830
S'        if message_body is not None:'
p253
sI831
S'            #message_body was not a string (i.e. it is a file) and'
p254
ssg89
S'(self=<httplib.HTTPConnection instance>, message_body=None)'
p255
sg91
S'_send_output'
p256
sa(dp257
g68
S'/usr/lib/python2.7/httplib.py'
p258
sg70
(dp259
S'self'
p260
S'<httplib.HTTPConnection instance>'
p261
sS'self.connect'
p262
S'<bound method HTTPConnection.connect of <httplib.HTTPConnection instance>>'
p263
ssg76
I791
sg77
(dp264
I786
S''
sI787
S'    def send(self, data):'
p265
sI788
S'        """Send `data\' to the server."""'
p266
sI789
S'        if self.sock is None:'
p267
sI790
S'            if self.auto_open:'
p268
sI791
S'                self.connect()'
p269
sI792
S'            else:'
p270
sI793
S'                raise NotConnected()'
p271
sI794
S''
sI795
S'        if self.debuglevel > 0:'
p272
ssg89
S"(self=<httplib.HTTPConnection instance>, data='GET /ean-services/rs/hotel/v3/list?cid=55505&api...0\\r\\nHost: api.ean.com\\r\\nUser-Agent: Mozilla/4.0\\r\\n\\r\\n')"
p273
sg91
S'send'
p274
sa(dp275
g68
S'/usr/lib/python2.7/httplib.py'
p276
sg70
(dp277
S'self.timeout'
p278
S'<object object>'
p279
sS'self'
p280
S'<httplib.HTTPConnection instance>'
p281
sS'self.source_address'
p282
S'None'
p283
ssg76
I772
sg77
(dp284
I768
S''
sI769
S'    def connect(self):'
p285
sI770
S'        """Connect to the host and port specified in __init__."""'
p286
sI771
S'        self.sock = socket.create_connection((self.host,self.port),'
p287
sI772
S'                                             self.timeout, self.source_address)'
p288
sI773
S''
sI774
S'        if self._tunnel_host:'
p289
sI775
S'            self._tunnel()'
p290
sI776
S''
sI767
S''
ssg89
S'(self=<httplib.HTTPConnection instance>)'
p291
sg91
S'connect'
p292
sa(dp293
g68
S'/usr/lib/python2.7/socket.py'
p294
sg70
(dp295
S'err'
p296
S"error(111, 'Connection refused')"
p297
ssg76
I571
sg77
(dp298
I564
S''
sI565
S'        except error as _:'
p299
sI566
S'            err = _'
p300
sI567
S'            if sock is not None:'
p301
sI568
S'                sock.close()'
p302
sI569
S''
sI570
S'    if err is not None:'
p303
sI571
S'        raise err'
p304
sI572
S'    else:'
p305
sI573
S'        raise error("getaddrinfo returns an empty list")'
p306
ssg89
S"(address=('api.ean.com', 80), timeout=<object object>, source_address=None)"
p307
sg91
S'create_connection'
p308
sasS'pyver'
p309
S'Python 2.7.4: /usr/bin/python (prefix: /usr)'
p310
sS'session'
p311
g63
(S's\x00\x02\x00\x00<div><table><tr><td style="font-weight:bold;vertical-align:top">date</td><td valign="top">:</td><td><div>2013-12-18</div></td></tr><tr><td style="font-weight:bold;vertical-align:top">flash</td><td valign="top">:</td><td><div>None</div></td></tr><tr><td style="font-weight:bold;vertical-align:top">last_orderby</td><td valign="top">:</td><td><div>None</div></td></tr><tr><td style="font-weight:bold;vertical-align:top">last_query</td><td valign="top">:</td><td><div>db.hotels.id&gt;0</div></td></tr></table></div>'
tRp312
sS'etype'
p313
S"<type 'exceptions.IOError'>"
p314
sS'date'
p315
S'Sun Dec  1 02:45:46 2013'
p316
sS'response'
p317
g63
(S's\x9b,\x00\x00<div><table><tr><td style="font-weight:bold;vertical-align:top">body</td><td valign="top">:</td><td><div>&lt;cStringIO.StringO object at 0x7f9250568ea0&gt;</div></td></tr><tr><td style="font-weight:bold;vertical-align:top">cookies</td><td valign="top">:</td><td><div><table><tr><td style="font-weight:bold;vertical-align:top">session_id_30thdec</td><td valign="top">:</td><td><div>127.0.0.1-6010333f-1e35-4746-940a-92d8f9478d29<table><tr><td style="font-weight:bold;vertical-align:top">comment</td><td valign="top">:</td><td><div></div></td></tr><tr><td style="font-weight:bold;vertical-align:top">domain</td><td valign="top">:</td><td><div></div></td></tr><tr><td style="font-weight:bold;vertical-align:top">expires</td><td valign="top">:</td><td><div></div></td></tr><tr><td style="font-weight:bold;vertical-align:top">httponly</td><td valign="top">:</td><td><div></div></td></tr><tr><td style="font-weight:bold;vertical-align:top">max-age</td><td valign="top">:</td><td><div></div></td></tr><tr><td style="font-weight:bold;vertical-align:top">path</td><td valign="top">:</td><td><div>/</div></td></tr><tr><td style="font-weight:bold;vertical-align:top">secure</td><td valign="top">:</td><td><div></div></td></tr><tr><td style="font-weight:bold;vertical-align:top">version</td><td valign="top">:</td><td><div></div></td></tr></table></div></td></tr></table></div></td></tr><tr><td style="font-weight:bold;vertical-align:top">delimiters</td><td valign="top">:</td><td><div><table><tr><td><div>{{</div></td></tr><tr><td><div>}}</div></td></tr></table></div></td></tr><tr><td style="font-weight:bold;vertical-align:top">files</td><td valign="top">:</td><td><div><table></table></div></td></tr><tr><td style="font-weight:bold;vertical-align:top">flash</td><td valign="top">:</td><td><div></div></td></tr><tr><td style="font-weight:bold;vertical-align:top">generic_patterns</td><td valign="top">:</td><td><div><table><tr><td><div>*</div></td></tr></table></div></td></tr><tr><td style="font-weight:bold;vertical-align:top">google_analytics_id</td><td valign="top">:</td><td><div>None</div></td></tr><tr><td style="font-weight:bold;vertical-align:top">headers</td><td valign="top">:</td><td><div><table><tr><td style="font-weight:bold;vertical-align:top">X-Powered-By</td><td valign="top">:</td><td><div>web2py</div></td></tr></table></div></td></tr><tr><td style="font-weight:bold;vertical-align:top">logo</td><td valign="top">:</td><td><div><a class="brand" href="http://www.web2py.com/"><b>web<span>2</span>py</b>&trade;&nbsp;</a></div></td></tr><tr><td style="font-weight:bold;vertical-align:top">menu</td><td valign="top">:</td><td><div><table><tr><td><div><table><tr><td><div>Home</div></td></tr><tr><td><div>False</div></td></tr><tr><td><div>/30thdec/default/index</div></td></tr><tr><td><div><table></table></div></td></tr></table></div></td></tr><tr><td><div><table><tr><td><div><span class="highlighted">web2py</span></div></td></tr><tr><td><div>False</div></td></tr><tr><td><div>http://web2py.com</div></td></tr><tr><td><div><table><tr><td><div><table><tr><td><div>My Sites</div></td></tr><tr><td><div>False</div></td></tr><tr><td><div>/admin/default/site</div></td></tr></table></div></td></tr><tr><td><div><table><tr><td><div>This App</div></td></tr><tr><td><div>False</div></td></tr><tr><td><div>/admin/default/design/30thdec</div></td></tr><tr><td><div>[(&lt;lazyT &#x27;Controller&#x27;&gt;, False, &#x27;/admin/default/edit/30thdec/controllers/default.py&#x27;), (&lt;lazyT &#x27;View&#x27;&gt;, False, &#x27;/admin/default/edit/30thdec/views/default/hotel.html&#x27;), (&lt;lazyT &#x27;Layout&#x27;&gt;, False, &#x27;/admin/default/edit/30thdec/views/layout.html&#x27;), (&lt;lazyT &#x27;Stylesheet&#x27;&gt;, False, &#x27;/admin/default/edit/30thdec/static/css/web2py.css&#x27;), (&lt;lazyT &#x27;DB Model&#x27;&gt;, False, &#x27;/admin/default/edit/30thdec/models/db.py&#x27;), (&lt;lazyT &#x27;Menu Model&#x27;&gt;, False, &#x27;/admin/default/edit/30thdec/models/menu.py&#x27;), (&lt;lazyT &#x27;Database&#x27;&gt;, False, &#x27;/30thdec/appadmin/index&#x27;), (&lt;lazyT &#x27;Errors&#x27;&gt;, False, &#x27;/admin/default/errors/30thdec&#x27;), (&lt;lazyT &#x27;About&#x27;&gt;, False, &#x27;/admin/default/about/30thdec&#x27;)]</div></td></tr></table></div></td></tr><tr><td><div><table><tr><td><div>web2py.com</div></td></tr><tr><td><div>False</div></td></tr><tr><td><div>http://www.web2py.com</div></td></tr><tr><td><div>[(&lt;lazyT &#x27;Download&#x27;&gt;, False, &#x27;http://www.web2py.com/examples/default/download&#x27;), (&lt;lazyT &#x27;Support&#x27;&gt;, False, &#x27;http://www.web2py.com/examples/default/support&#x27;), (&lt;lazyT &#x27;Demo&#x27;&gt;, False, &#x27;http://web2py.com/demo_admin&#x27;), (&lt;lazyT &#x27;Quick Examples&#x27;&gt;, False, &#x27;http://web2py.com/examples/default/examples&#x27;), (&lt;lazyT &#x27;FAQ&#x27;&gt;, False, &#x27;http://web2py.com/AlterEgo&#x27;), (&lt;lazyT &#x27;Videos&#x27;&gt;, False, &#x27;http://www.web2py.com/examples/default/videos/&#x27;), (&lt;lazyT &#x27;Free Applications&#x27;&gt;, False, &#x27;http://web2py.com/appliances&#x27;), (&lt;lazyT &#x27;Plugins&#x27;&gt;, False, &#x27;http://web2py.com/plugins&#x27;), (&lt;lazyT &#x27;Layouts&#x27;&gt;, False, &#x27;http://web2py.com/layouts&#x27;), (&lt;lazyT &#x27;Recipes&#x27;&gt;, False, &#x27;http://web2pyslices.com/&#x27;), (&lt;lazyT &#x27;Semantic&#x27;&gt;, False, &#x27;http://web2py.com/semantic&#x27;)]</div></td></tr></table></div></td></tr><tr><td><div><table><tr><td><div>Documentation</div></td></tr><tr><td><div>False</div></td></tr><tr><td><div>http://www.web2py.com/book</div></td></tr><tr><td><div>[(&lt;lazyT &#x27;Preface&#x27;&gt;, False, &#x27;http://www.web2py.com/book/default/chapter/00&#x27;), (&lt;lazyT &#x27;Introduction&#x27;&gt;, False, &#x27;http://www.web2py.com/book/default/chapter/01&#x27;), (&lt;lazyT &#x27;Python&#x27;&gt;, False, &#x27;http://www.web2py.com/book/default/chapter/02&#x27;), (&lt;lazyT &#x27;Overview&#x27;&gt;, False, &#x27;http://www.web2py.com/book/default/chapter/03&#x27;), (&lt;lazyT &#x27;The Core&#x27;&gt;, False, &#x27;http://www.web2py.com/book/default/chapter/04&#x27;), (&lt;lazyT &#x27;The Views&#x27;&gt;, False, &#x27;http://www.web2py.com/book/default/chapter/05&#x27;), (&lt;lazyT &#x27;Database&#x27;&gt;, False, &#x27;http://www.web2py.com/book/default/chapter/06&#x27;), (&lt;lazyT &#x27;Forms and Validators&#x27;&gt;, False, &#x27;http://www.web2py.com/book/default/chapter/07&#x27;), (&lt;lazyT &#x27;Email and SMS&#x27;&gt;, False, &#x27;http://www.web2py.com/book/default/chapter/08&#x27;), (&lt;lazyT &#x27;Access Control&#x27;&gt;, False, &#x27;http://www.web2py.com/book/default/chapter/09&#x27;), (&lt;lazyT &#x27;Services&#x27;&gt;, False, &#x27;http://www.web2py.com/book/default/chapter/10&#x27;), (&lt;lazyT &#x27;Ajax Recipes&#x27;&gt;, False, &#x27;http://www.web2py.com/book/default/chapter/11&#x27;), (&lt;lazyT &#x27;Components and Plugins&#x27;&gt;, False, &#x27;http://www.web2py.com/book/default/chapter/12&#x27;), (&lt;lazyT &#x27;Deployment Recipes&#x27;&gt;, False, &#x27;http://www.web2py.com/book/default/chapter/13&#x27;), (&lt;lazyT &#x27;Other Recipes&#x27;&gt;, False, &#x27;http://www.web2py.com/book/default/chapter/14&#x27;), (&lt;lazyT &#x27;Buy this book&#x27;&gt;, False, &#x27;http://stores.lulu.com/web2py&#x27;)]</div></td></tr></table></div></td></tr><tr><td><div><table><tr><td><div>Community</div></td></tr><tr><td><div>False</div></td></tr><tr><td><div>None</div></td></tr><tr><td><div>[(&lt;lazyT &#x27;Groups&#x27;&gt;, False, &#x27;http://www.web2py.com/examples/default/usergroups&#x27;), (&lt;lazyT &#x27;Twitter&#x27;&gt;, False, &#x27;http://twitter.com/web2py&#x27;), (&lt;lazyT &#x27;Live Chat&#x27;&gt;, False, &#x27;http://webchat.freenode.net/?channels=web2py&#x27;)]</div></td></tr></table></div></td></tr><tr><td><div><table><tr><td><div>Plugins</div></td></tr><tr><td><div>False</div></td></tr><tr><td><div>None</div></td></tr><tr><td><div>[(&#x27;plugin_wiki&#x27;, False, &#x27;http://web2py.com/examples/default/download&#x27;), (&lt;lazyT &#x27;Other Plugins&#x27;&gt;, False, &#x27;http://web2py.com/plugins&#x27;), (&lt;lazyT &#x27;Layout Plugins&#x27;&gt;, False, &#x27;http://web2py.com/layouts&#x27;)]</div></td></tr></table></div></td></tr></table></div></td></tr></table></div></td></tr></table></div></td></tr><tr><td style="font-weight:bold;vertical-align:top">meta</td><td valign="top">:</td><td><div><table><tr><td style="font-weight:bold;vertical-align:top">author</td><td valign="top">:</td><td><div>Your Name &lt;you@example.com&gt;</div></td></tr><tr><td style="font-weight:bold;vertical-align:top">description</td><td valign="top">:</td><td><div>a cool new app</div></td></tr><tr><td style="font-weight:bold;vertical-align:top">generator</td><td valign="top">:</td><td><div>Web2py Web Framework</div></td></tr><tr><td style="font-weight:bold;vertical-align:top">keywords</td><td valign="top">:</td><td><div>web2py, python, framework</div></td></tr></table></div></td></tr><tr><td style="font-weight:bold;vertical-align:top">models_to_run</td><td valign="top">:</td><td><div><table><tr><td><div>^\\w+\\.py$</div></td></tr><tr><td><div>^default/\\w+\\.py$</div></td></tr><tr><td><div>^default/hotel/\\w+\\.py$</div></td></tr></table></div></td></tr><tr><td style="font-weight:bold;vertical-align:top">postprocessing</td><td valign="top">:</td><td><div><table></table></div></td></tr><tr><td style="font-weight:bold;vertical-align:top">session_cookie_expires</td><td valign="top">:</td><td><div>None</div></td></tr><tr><td style="font-weight:bold;vertical-align:top">session_data_name</td><td valign="top">:</td><td><div>session_data_30thdec</div></td></tr><tr><td style="font-weight:bold;vertical-align:top">session_file</td><td valign="top">:</td><td><div>&lt;open file &#x27;/home/mohanty/web2py/applications/30thdec/sessions/127.0.0.1-6010333f-1e35-4746-940a-92d8f9478d29&#x27;, mode &#x27;rb+&#x27; at 0x7f9238358780&gt;</div></td></tr><tr><td style="font-weight:bold;vertical-align:top">session_filename</td><td valign="top">:</td><td><div>/home/mohanty/web2py/applications/30thdec/sessions/127.0.0.1-6010333f-1e35-4746-940a-92d8f9478d29</div></td></tr><tr><td style="font-weight:bold;vertical-align:top">session_id</td><td valign="top">:</td><td><div>127.0.0.1-6010333f-1e35-4746-940a-92d8f9478d29</div></td></tr><tr><td style="font-weight:bold;vertical-align:top">session_id_name</td><td valign="top">:</td><td><div>session_id_30thdec</div></td></tr><tr><td style="font-weight:bold;vertical-align:top">session_locked</td><td valign="top">:</td><td><div>True</div></td></tr><tr><td style="font-weight:bold;vertical-align:top">session_new</td><td valign="top">:</td><td><div>False</div></td></tr><tr><td style="font-weight:bold;vertical-align:top">session_storage_type</td><td valign="top">:</td><td><div>file</div></td></tr><tr><td style="font-weight:bold;vertical-align:top">status</td><td valign="top">:</td><td><div>200</div></td></tr><tr><td style="font-weight:bold;vertical-align:top">subtitle</td><td valign="top">:</td><td><div>customize me!</div></td></tr><tr><td style="font-weight:bold;vertical-align:top">title</td><td valign="top">:</td><td><div>30Thdec</div></td></tr><tr><td style="font-weight:bold;vertical-align:top">view</td><td valign="top">:</td><td><div>default/hotel.html</div></td></tr></table></div>'
tRp318
sS'locals'
p319
(dp320
S'err'
p321
S"error(111, 'Connection refused')"
p322
sS'af'
p323
S'2'
sS'res'
p324
S"(2, 1, 6, '', ('96.17.181.27', 80))"
p325
sS'proto'
p326
S'6'
sS'sock'
p327
S'<socket._socketobject object>'
p328
sS'host'
p329
S"'api.ean.com'"
p330
sS'_'
S"error(111, 'Connection refused')"
p331
sS'timeout'
p332
S'<object object>'
p333
sS'canonname'
p334
S"''"
p335
sS'socktype'
p336
S'1'
sS'sa'
p337
S"('96.17.181.27', 80)"
p338
sS'source_address'
p339
S'None'
p340
sS'port'
p341
S'80'
p342
sS'address'
p343
S"('api.ean.com', 80)"
p344
sssS'traceback'
p345
S'Traceback (most recent call last):\n  File "/home/mohanty/web2py/gluon/restricted.py", line 212, in restricted\n    exec ccode in environment\n  File "/home/mohanty/web2py/applications/30thdec/controllers/default.py", line 312, in <module>\n  File "/home/mohanty/web2py/gluon/globals.py", line 194, in <lambda>\n    self._caller = lambda f: f()\n  File "/home/mohanty/web2py/applications/30thdec/controllers/default.py", line 281, in hotel\n    a=urllib.urlopen(link)\n  File "/usr/lib/python2.7/urllib.py", line 87, in urlopen\n    return opener.open(url)\n  File "/usr/lib/python2.7/urllib.py", line 208, in open\n    return getattr(self, name)(url)\n  File "/usr/lib/python2.7/urllib.py", line 345, in open_http\n    h.endheaders(data)\n  File "/usr/lib/python2.7/httplib.py", line 969, in endheaders\n    self._send_output(message_body)\n  File "/usr/lib/python2.7/httplib.py", line 829, in _send_output\n    self.send(msg)\n  File "/usr/lib/python2.7/httplib.py", line 791, in send\n    self.connect()\n  File "/usr/lib/python2.7/httplib.py", line 772, in connect\n    self.timeout, self.source_address)\n  File "/usr/lib/python2.7/socket.py", line 571, in create_connection\n    raise err\nIOError: [Errno socket error] [Errno 111] Connection refused\n'
p346
s.